GAS LISTING /tmp/ccyr0A5f.s 			page 1


   1              		.file	"semaphore.cpp"
   2              		.option pic
   3              		.option norelax
   4              		.text
   5              	.Ltext0:
   6              		.align	2
   7              		.globl	_ZN3Sem4openEj
   9              	_ZN3Sem4openEj:
  10              	.LFB40:
  11              		.file 1 "src/semaphore.cpp"
   1:src/semaphore.cpp **** #include "../h/semaphore.hpp"
   2:src/semaphore.cpp **** #include "../h/syscall_c.hpp"
   3:src/semaphore.cpp **** 
   4:src/semaphore.cpp **** 
   5:src/semaphore.cpp **** int Sem::wait() {
   6:src/semaphore.cpp ****     if(this->closed) {
   7:src/semaphore.cpp ****         return -1;
   8:src/semaphore.cpp ****     }
   9:src/semaphore.cpp ****     if((int)--this->value < 0) {
  10:src/semaphore.cpp ****         block();
  11:src/semaphore.cpp ****         if(this->closed) {
  12:src/semaphore.cpp ****             return -1;
  13:src/semaphore.cpp ****         }
  14:src/semaphore.cpp ****     }
  15:src/semaphore.cpp ****     return 0;
  16:src/semaphore.cpp **** }
  17:src/semaphore.cpp **** 
  18:src/semaphore.cpp **** int Sem::signal() {
  19:src/semaphore.cpp ****     if(this->closed) {
  20:src/semaphore.cpp ****         return -1;
  21:src/semaphore.cpp ****     }
  22:src/semaphore.cpp ****     if((int)++this->value <= 0) {
  23:src/semaphore.cpp ****         unblock();
  24:src/semaphore.cpp ****     }
  25:src/semaphore.cpp ****     return 0;
  26:src/semaphore.cpp **** }
  27:src/semaphore.cpp **** 
  28:src/semaphore.cpp **** Sem *Sem::open(unsigned int init) {
  12              		.loc 1 28 35
  13              		.cfi_startproc
  14              	.LVL0:
  15 0000 130101FE 		addi	sp,sp,-32
  16              		.cfi_def_cfa_offset 32
  17 0004 233C1100 		sd	ra,24(sp)
  18 0008 23388100 		sd	s0,16(sp)
  19 000c 23349100 		sd	s1,8(sp)
  20              		.cfi_offset 1, -8
  21              		.cfi_offset 8, -16
  22              		.cfi_offset 9, -24
  23 0010 13040102 		addi	s0,sp,32
  24              		.cfi_def_cfa 8, 0
  25 0014 93040500 		mv	s1,a0
  29:src/semaphore.cpp ****     return new Sem(init);
  26              		.loc 1 29 5
  27              	.LVL1:
  28              	.LBB45:
  29              	.LBB46:
GAS LISTING /tmp/ccyr0A5f.s 			page 2


  30              		.file 2 "src/../h/semaphore.hpp"
   1:src/../h/semaphore.hpp **** #ifndef SEMAPHORE_HPP
   2:src/../h/semaphore.hpp **** #define SEMAPHORE_HPP
   3:src/../h/semaphore.hpp **** 
   4:src/../h/semaphore.hpp **** #include "list.hpp"
   5:src/../h/semaphore.hpp **** #include "tcb.hpp"
   6:src/../h/semaphore.hpp **** #include "memoryAllocator.hpp"
   7:src/../h/semaphore.hpp **** 
   8:src/../h/semaphore.hpp **** 
   9:src/../h/semaphore.hpp **** class Sem {
  10:src/../h/semaphore.hpp **** public:
  11:src/../h/semaphore.hpp ****     explicit Sem(unsigned init = 1) : value((unsigned ) init), closed(false){}
  12:src/../h/semaphore.hpp **** 
  13:src/../h/semaphore.hpp ****     int wait();
  14:src/../h/semaphore.hpp ****     int signal();
  15:src/../h/semaphore.hpp ****     static Sem* open(unsigned init = 1);
  16:src/../h/semaphore.hpp ****     int close();
  17:src/../h/semaphore.hpp **** 
  18:src/../h/semaphore.hpp **** 
  19:src/../h/semaphore.hpp ****     void* operator new(size_t size) {
  20:src/../h/semaphore.hpp ****         return MemoryAllocator::mem_alloc(size);
  31              		.loc 2 20 9
  32              		.loc 2 20 42 is_stmt 0
  33 0018 13058001 		li	a0,24
  34              	.LVL2:
  35 001c 97000000 		call	_ZN15MemoryAllocator9mem_allocEm@plt
  35      E7800000 
  36              	.LVL3:
  37              	.LBE46:
  38              	.LBE45:
  39              	.LBB47:
  40              	.LBB48:
  11:src/../h/semaphore.hpp **** 
  41              		.loc 2 11 76
  42 0024 23209500 		sw	s1,0(a0)
  43 0028 23020500 		sb	zero,4(a0)
  44              	.LVL4:
  45              	.LBB49:
  46              	.LBB50:
  47              		.file 3 "src/../h/list.hpp"
   1:src/../h/list.hpp **** #ifndef LIST_HPP
   2:src/../h/list.hpp **** #define LIST_HPP
   3:src/../h/list.hpp **** 
   4:src/../h/list.hpp **** #include "memoryAllocator.hpp"
   5:src/../h/list.hpp **** 
   6:src/../h/list.hpp **** template<typename T>
   7:src/../h/list.hpp **** class List
   8:src/../h/list.hpp **** {
   9:src/../h/list.hpp **** private:
  10:src/../h/list.hpp ****     struct Elem
  11:src/../h/list.hpp ****     {
  12:src/../h/list.hpp ****         T *data;
  13:src/../h/list.hpp ****         Elem *next;
  14:src/../h/list.hpp **** 
  15:src/../h/list.hpp ****         Elem(T *data, Elem *next) : data(data), next(next) {}
  16:src/../h/list.hpp **** 
  17:src/../h/list.hpp ****         void* operator new(size_t size) {
GAS LISTING /tmp/ccyr0A5f.s 			page 3


  18:src/../h/list.hpp ****             return MemoryAllocator::mem_alloc(size);
  19:src/../h/list.hpp ****         }
  20:src/../h/list.hpp ****         void* operator new[](size_t size) {
  21:src/../h/list.hpp ****             return MemoryAllocator::mem_alloc(size);
  22:src/../h/list.hpp ****         }
  23:src/../h/list.hpp ****         
  24:src/../h/list.hpp ****         void operator delete(void *ptr) {
  25:src/../h/list.hpp ****             MemoryAllocator::mem_free(ptr);
  26:src/../h/list.hpp ****         }
  27:src/../h/list.hpp ****         void operator delete[](void *ptr) {
  28:src/../h/list.hpp ****             MemoryAllocator::mem_free(ptr);
  29:src/../h/list.hpp ****         }
  30:src/../h/list.hpp ****     };
  31:src/../h/list.hpp **** 
  32:src/../h/list.hpp ****     Elem *head, *tail;
  33:src/../h/list.hpp **** 
  34:src/../h/list.hpp **** public:
  35:src/../h/list.hpp ****     List() : head(0), tail(0) {}
  48              		.loc 3 35 29
  49 002c 23340500 		sd	zero,8(a0)
  50 0030 23380500 		sd	zero,16(a0)
  51              	.LVL5:
  52              	.LBE50:
  53              	.LBE49:
  54              	.LBE48:
  55              	.LBE47:
  30:src/semaphore.cpp **** }
  56              		.loc 1 30 1
  57 0034 83308101 		ld	ra,24(sp)
  58              		.cfi_restore 1
  59 0038 03340101 		ld	s0,16(sp)
  60              		.cfi_restore 8
  61              		.cfi_def_cfa 2, 32
  62 003c 83348100 		ld	s1,8(sp)
  63              		.cfi_restore 9
  64 0040 13010102 		addi	sp,sp,32
  65              		.cfi_def_cfa_offset 0
  66 0044 67800000 		jr	ra
  67              		.cfi_endproc
  68              	.LFE40:
  70              		.align	2
  71              		.globl	_ZN3Sem5closeEv
  73              	_ZN3Sem5closeEv:
  74              	.LFB41:
  31:src/semaphore.cpp **** 
  32:src/semaphore.cpp **** int Sem::close() {
  75              		.loc 1 32 18 is_stmt 1
  76              		.cfi_startproc
  77              	.LVL6:
  33:src/semaphore.cpp ****     if (closed) {
  78              		.loc 1 33 5
  79              		.loc 1 33 9 is_stmt 0
  80 0048 83474500 		lbu	a5,4(a0)
  81              		.loc 1 33 5
  82 004c 63960706 		bnez	a5,.L7
  32:src/semaphore.cpp ****     if (closed) {
  83              		.loc 1 32 18
GAS LISTING /tmp/ccyr0A5f.s 			page 4


  84 0050 130101FE 		addi	sp,sp,-32
  85              		.cfi_def_cfa_offset 32
  86 0054 233C1100 		sd	ra,24(sp)
  87 0058 23388100 		sd	s0,16(sp)
  88 005c 23349100 		sd	s1,8(sp)
  89 0060 23302101 		sd	s2,0(sp)
  90              		.cfi_offset 1, -8
  91              		.cfi_offset 8, -16
  92              		.cfi_offset 9, -24
  93              		.cfi_offset 18, -32
  94 0064 13040102 		addi	s0,sp,32
  95              		.cfi_def_cfa 8, 0
  96 0068 93040500 		mv	s1,a0
  34:src/semaphore.cpp ****         return -1;
  35:src/semaphore.cpp ****     }
  36:src/semaphore.cpp ****     closed = true;
  97              		.loc 1 36 5 is_stmt 1
  98              		.loc 1 36 12 is_stmt 0
  99 006c 93071000 		li	a5,1
 100 0070 2302F500 		sb	a5,4(a0)
 101 0074 6F004002 		j	.L6
 102              	.LVL7:
 103              	.L14:
 104              	.LBB51:
 105              	.LBB52:
 106              	.LBB53:
  36:src/../h/list.hpp **** 
  37:src/../h/list.hpp ****     List(const List<T> &) = delete;
  38:src/../h/list.hpp **** 
  39:src/../h/list.hpp ****     List<T> &operator=(const List<T> &) = delete;
  40:src/../h/list.hpp **** 
  41:src/../h/list.hpp ****     void addFirst(T *data)
  42:src/../h/list.hpp ****     {
  43:src/../h/list.hpp ****         Elem *elem = new Elem(data, head);
  44:src/../h/list.hpp ****         head = elem;
  45:src/../h/list.hpp ****         if (!tail) { tail = head; }
  46:src/../h/list.hpp ****     }
  47:src/../h/list.hpp **** 
  48:src/../h/list.hpp ****     void addLast(T *data)
  49:src/../h/list.hpp ****     {
  50:src/../h/list.hpp ****         Elem *elem = new Elem(data, 0);
  51:src/../h/list.hpp ****         if (tail)
  52:src/../h/list.hpp ****         {
  53:src/../h/list.hpp ****             tail->next = elem;
  54:src/../h/list.hpp ****             tail = elem;
  55:src/../h/list.hpp ****         } else
  56:src/../h/list.hpp ****         {
  57:src/../h/list.hpp ****             head = tail = elem;
  58:src/../h/list.hpp ****         }
  59:src/../h/list.hpp ****     }
  60:src/../h/list.hpp **** 
  61:src/../h/list.hpp ****     T *removeFirst()
  62:src/../h/list.hpp ****     {
  63:src/../h/list.hpp ****         if (!head) { return 0; }
  64:src/../h/list.hpp **** 
  65:src/../h/list.hpp ****         Elem *elem = head;
  66:src/../h/list.hpp ****         head = head->next;
GAS LISTING /tmp/ccyr0A5f.s 			page 5


  67:src/../h/list.hpp ****         if (!head) { tail = 0; }
 107              		.loc 3 67 22
 108 0078 23B80400 		sd	zero,16(s1)
 109              	.L5:
  68:src/../h/list.hpp **** 
  69:src/../h/list.hpp ****         T *ret = elem->data;
 110              		.loc 3 69 12
 111 007c 03390500 		ld	s2,0(a0)
 112              	.LVL8:
 113              	.LBB54:
 114              	.LBB55:
  25:src/../h/list.hpp ****         }
 115              		.loc 3 25 38
 116 0080 97000000 		call	_ZN15MemoryAllocator8mem_freeEPv@plt
 116      E7800000 
 117              	.LVL9:
 118              	.LBE55:
 119              	.LBE54:
 120              	.LBE53:
 121              	.LBE52:
  37:src/semaphore.cpp **** 
  38:src/semaphore.cpp ****     while (this->blocked.peekFirst()) {
  39:src/semaphore.cpp ****         TCB* tcb = this->blocked.removeFirst();
  40:src/semaphore.cpp ****         tcb->setBlocked(false);
 122              		.loc 1 40 9 is_stmt 1
 123              	.LBB57:
 124              	.LBB58:
 125              		.file 4 "src/../h/tcb.hpp"
   1:src/../h/tcb.hpp **** #ifndef OS1_VEZBE07_RISCV_CONTEXT_SWITCH_2_INTERRUPT_TCB_HPP
   2:src/../h/tcb.hpp **** #define OS1_VEZBE07_RISCV_CONTEXT_SWITCH_2_INTERRUPT_TCB_HPP
   3:src/../h/tcb.hpp **** 
   4:src/../h/tcb.hpp **** #include "../lib/hw.h"
   5:src/../h/tcb.hpp **** #include "scheduler.hpp"
   6:src/../h/tcb.hpp **** #include "memoryAllocator.hpp"
   7:src/../h/tcb.hpp **** #include "print.hpp"
   8:src/../h/tcb.hpp **** 
   9:src/../h/tcb.hpp **** 
  10:src/../h/tcb.hpp **** // Thread Control Block
  11:src/../h/tcb.hpp **** 
  12:src/../h/tcb.hpp **** 
  13:src/../h/tcb.hpp **** class TCB
  14:src/../h/tcb.hpp **** {
  15:src/../h/tcb.hpp **** public:
  16:src/../h/tcb.hpp ****     static int id;
  17:src/../h/tcb.hpp **** 
  18:src/../h/tcb.hpp ****     ~TCB() { delete[] stack; }
  19:src/../h/tcb.hpp **** 
  20:src/../h/tcb.hpp ****     bool isFinished() const { return finished; }
  21:src/../h/tcb.hpp **** 
  22:src/../h/tcb.hpp ****     void setFinished(bool value) { finished = value; }
  23:src/../h/tcb.hpp **** 
  24:src/../h/tcb.hpp ****     bool isBlocked() const { return this->blocked; }
  25:src/../h/tcb.hpp **** 
  26:src/../h/tcb.hpp ****     void setBlocked(bool value) { this->blocked = value; }
 126              		.loc 4 26 35
 127              		.loc 4 26 49 is_stmt 0
 128 0088 A3000902 		sb	zero,33(s2)
GAS LISTING /tmp/ccyr0A5f.s 			page 6


 129              	.LVL10:
 130              	.LBE58:
 131              	.LBE57:
  41:src/semaphore.cpp ****         Scheduler::put(tcb);
 132              		.loc 1 41 9 is_stmt 1
 133              		.loc 1 41 23 is_stmt 0
 134 008c 13050900 		mv	a0,s2
 135 0090 97000000 		call	_ZN9Scheduler3putEP3TCB@plt
 135      E7800000 
 136              	.LVL11:
 137              	.L6:
 138              	.LBE51:
  38:src/semaphore.cpp ****         TCB* tcb = this->blocked.removeFirst();
 139              		.loc 1 38 5 is_stmt 1
  38:src/semaphore.cpp ****         TCB* tcb = this->blocked.removeFirst();
 140              		.loc 1 38 36
 141              	.LBB60:
 142              	.LBB61:
  70:src/../h/list.hpp ****         delete elem;
  71:src/../h/list.hpp ****         return ret;
  72:src/../h/list.hpp ****     }
  73:src/../h/list.hpp **** 
  74:src/../h/list.hpp ****     T *peekFirst()
  75:src/../h/list.hpp ****     {
  76:src/../h/list.hpp ****         if (!head) { return 0; }
 143              		.loc 3 76 14 is_stmt 0
 144 0098 03B58400 		ld	a0,8(s1)
 145              		.loc 3 76 9
 146 009c 63020502 		beqz	a0,.L8
  77:src/../h/list.hpp ****         return head->data;
 147              		.loc 3 77 22
 148 00a0 83370500 		ld	a5,0(a0)
 149              	.LVL12:
 150              	.LBE61:
 151              	.LBE60:
  38:src/semaphore.cpp ****         TCB* tcb = this->blocked.removeFirst();
 152              		.loc 1 38 36
 153 00a4 638C0702 		beqz	a5,.L9
 154              	.LBB62:
  39:src/semaphore.cpp ****         tcb->setBlocked(false);
 155              		.loc 1 39 9 is_stmt 1
 156              	.LVL13:
 157              	.LBB59:
 158              	.LBB56:
  66:src/../h/list.hpp ****         if (!head) { tail = 0; }
 159              		.loc 3 66 22 is_stmt 0
 160 00a8 83378500 		ld	a5,8(a0)
  66:src/../h/list.hpp ****         if (!head) { tail = 0; }
 161              		.loc 3 66 9
 162 00ac 23B4F400 		sd	a5,8(s1)
  67:src/../h/list.hpp **** 
 163              		.loc 3 67 9
 164 00b0 E39607FC 		bnez	a5,.L5
 165 00b4 6FF05FFC 		j	.L14
 166              	.LVL14:
 167              	.L7:
 168              		.cfi_def_cfa_register 2
GAS LISTING /tmp/ccyr0A5f.s 			page 7


 169              		.cfi_restore 1
 170              		.cfi_restore 8
 171              		.cfi_restore 9
 172              		.cfi_restore 18
 173              	.LBE56:
 174              	.LBE59:
 175              	.LBE62:
  34:src/semaphore.cpp ****     }
 176              		.loc 1 34 17
 177 00b8 1305F0FF 		li	a0,-1
 178              	.LVL15:
  42:src/semaphore.cpp ****     }
  43:src/semaphore.cpp ****     return 0;
  44:src/semaphore.cpp **** }
 179              		.loc 1 44 1
 180 00bc 67800000 		ret
 181              	.LVL16:
 182              	.L8:
 183              		.cfi_def_cfa_register 8
 184              		.cfi_offset 1, -8
 185              		.cfi_offset 8, -16
 186              		.cfi_offset 9, -24
 187              		.cfi_offset 18, -32
  43:src/semaphore.cpp **** }
 188              		.loc 1 43 12
 189 00c0 13050000 		li	a0,0
 190              	.LVL17:
 191              	.L4:
 192              		.loc 1 44 1
 193 00c4 83308101 		ld	ra,24(sp)
 194              		.cfi_remember_state
 195              		.cfi_restore 1
 196 00c8 03340101 		ld	s0,16(sp)
 197              		.cfi_restore 8
 198              		.cfi_def_cfa 2, 32
 199 00cc 83348100 		ld	s1,8(sp)
 200              		.cfi_restore 9
 201              	.LVL18:
 202 00d0 03390100 		ld	s2,0(sp)
 203              		.cfi_restore 18
 204 00d4 13010102 		addi	sp,sp,32
 205              		.cfi_def_cfa_offset 0
 206 00d8 67800000 		jr	ra
 207              	.LVL19:
 208              	.L9:
 209              		.cfi_restore_state
  43:src/semaphore.cpp **** }
 210              		.loc 1 43 12
 211 00dc 13050000 		li	a0,0
 212 00e0 6FF05FFE 		j	.L4
 213              		.cfi_endproc
 214              	.LFE41:
 216              		.align	2
 217              		.globl	_ZN3Sem5blockEv
 219              	_ZN3Sem5blockEv:
 220              	.LFB42:
  45:src/semaphore.cpp **** 
GAS LISTING /tmp/ccyr0A5f.s 			page 8


  46:src/semaphore.cpp **** 
  47:src/semaphore.cpp **** void Sem::block(){
 221              		.loc 1 47 18 is_stmt 1
 222              		.cfi_startproc
 223              	.LVL20:
 224 00e4 130101FE 		addi	sp,sp,-32
 225              		.cfi_def_cfa_offset 32
 226 00e8 233C1100 		sd	ra,24(sp)
 227 00ec 23388100 		sd	s0,16(sp)
 228 00f0 23349100 		sd	s1,8(sp)
 229 00f4 23302101 		sd	s2,0(sp)
 230              		.cfi_offset 1, -8
 231              		.cfi_offset 8, -16
 232              		.cfi_offset 9, -24
 233              		.cfi_offset 18, -32
 234 00f8 13040102 		addi	s0,sp,32
 235              		.cfi_def_cfa 8, 0
 236 00fc 93040500 		mv	s1,a0
  48:src/semaphore.cpp ****     TCB* t = TCB::running;
 237              		.loc 1 48 5
 238              		.loc 1 48 10 is_stmt 0
 239 0100 97070000 		la	a5,_ZN3TCB7runningE
 239      83B70700 
 240 0108 03B90700 		ld	s2,0(a5)
 241              	.LVL21:
  49:src/semaphore.cpp ****     t->setBlocked(true);
 242              		.loc 1 49 5 is_stmt 1
 243              	.LBB63:
 244              	.LBB64:
 245              		.loc 4 26 35
 246              		.loc 4 26 49 is_stmt 0
 247 010c 93071000 		li	a5,1
 248 0110 A300F902 		sb	a5,33(s2)
 249              	.LVL22:
 250              	.LBE64:
 251              	.LBE63:
  50:src/semaphore.cpp ****     blocked.addLast(t);
 252              		.loc 1 50 5 is_stmt 1
 253              	.LBB65:
 254              	.LBB66:
 255              	.LBB67:
 256              	.LBB68:
  18:src/../h/list.hpp ****         }
 257              		.loc 3 18 46 is_stmt 0
 258 0114 13050001 		li	a0,16
 259              	.LVL23:
 260 0118 97000000 		call	_ZN15MemoryAllocator9mem_allocEm@plt
 260      E7800000 
 261              	.LVL24:
 262              	.LBE68:
 263              	.LBE67:
 264              	.LBB69:
 265              	.LBB70:
  15:src/../h/list.hpp **** 
 266              		.loc 3 15 58
 267 0120 23302501 		sd	s2,0(a0)
 268 0124 23340500 		sd	zero,8(a0)
GAS LISTING /tmp/ccyr0A5f.s 			page 9


 269              	.LVL25:
 270              	.LBE70:
 271              	.LBE69:
  51:src/../h/list.hpp ****         {
 272              		.loc 3 51 13
 273 0128 83B70401 		ld	a5,16(s1)
  51:src/../h/list.hpp ****         {
 274              		.loc 3 51 9
 275 012c 63860702 		beqz	a5,.L16
  53:src/../h/list.hpp ****             tail = elem;
 276              		.loc 3 53 13
 277 0130 23B4A700 		sd	a0,8(a5)
  54:src/../h/list.hpp ****         } else
 278              		.loc 3 54 13
 279 0134 23B8A400 		sd	a0,16(s1)
 280              	.L17:
 281              	.LVL26:
 282              	.LBE66:
 283              	.LBE65:
  51:src/semaphore.cpp **** 
  52:src/semaphore.cpp ****     //TCB::yield();
  53:src/semaphore.cpp ****     thread_dispatch();
 284              		.loc 1 53 5 is_stmt 1
 285              		.loc 1 53 20 is_stmt 0
 286 0138 97000000 		call	_Z15thread_dispatchv@plt
 286      E7800000 
 287              	.LVL27:
  54:src/semaphore.cpp **** }
 288              		.loc 1 54 1
 289 0140 83308101 		ld	ra,24(sp)
 290              		.cfi_remember_state
 291              		.cfi_restore 1
 292 0144 03340101 		ld	s0,16(sp)
 293              		.cfi_restore 8
 294              		.cfi_def_cfa 2, 32
 295 0148 83348100 		ld	s1,8(sp)
 296              		.cfi_restore 9
 297              	.LVL28:
 298 014c 03390100 		ld	s2,0(sp)
 299              		.cfi_restore 18
 300              	.LVL29:
 301 0150 13010102 		addi	sp,sp,32
 302              		.cfi_def_cfa_offset 0
 303 0154 67800000 		jr	ra
 304              	.LVL30:
 305              	.L16:
 306              		.cfi_restore_state
 307              	.LBB72:
 308              	.LBB71:
  57:src/../h/list.hpp ****         }
 309              		.loc 3 57 13
 310 0158 23B8A400 		sd	a0,16(s1)
 311 015c 23B4A400 		sd	a0,8(s1)
 312 0160 6FF09FFD 		j	.L17
 313              	.LBE71:
 314              	.LBE72:
 315              		.cfi_endproc
GAS LISTING /tmp/ccyr0A5f.s 			page 10


 316              	.LFE42:
 318              		.align	2
 319              		.globl	_ZN3Sem4waitEv
 321              	_ZN3Sem4waitEv:
 322              	.LFB38:
   5:src/semaphore.cpp ****     if(this->closed) {
 323              		.loc 1 5 17 is_stmt 1
 324              		.cfi_startproc
 325              	.LVL31:
   6:src/semaphore.cpp ****         return -1;
 326              		.loc 1 6 5
   6:src/semaphore.cpp ****         return -1;
 327              		.loc 1 6 14 is_stmt 0
 328 0164 83474500 		lbu	a5,4(a0)
   6:src/semaphore.cpp ****         return -1;
 329              		.loc 1 6 5
 330 0168 63900706 		bnez	a5,.L21
   5:src/semaphore.cpp ****     if(this->closed) {
 331              		.loc 1 5 17
 332 016c 130101FE 		addi	sp,sp,-32
 333              		.cfi_def_cfa_offset 32
 334 0170 233C1100 		sd	ra,24(sp)
 335 0174 23388100 		sd	s0,16(sp)
 336 0178 23349100 		sd	s1,8(sp)
 337              		.cfi_offset 1, -8
 338              		.cfi_offset 8, -16
 339              		.cfi_offset 9, -24
 340 017c 13040102 		addi	s0,sp,32
 341              		.cfi_def_cfa 8, 0
 342 0180 93040500 		mv	s1,a0
   9:src/semaphore.cpp ****         block();
 343              		.loc 1 9 5 is_stmt 1
   9:src/semaphore.cpp ****         block();
 344              		.loc 1 9 21 is_stmt 0
 345 0184 83270500 		lw	a5,0(a0)
   9:src/semaphore.cpp ****         block();
 346              		.loc 1 9 13
 347 0188 9B87F7FF 		addiw	a5,a5,-1
   9:src/semaphore.cpp ****         block();
 348              		.loc 1 9 27
 349 018c 2320F500 		sw	a5,0(a0)
   9:src/semaphore.cpp ****         block();
 350              		.loc 1 9 5
 351 0190 13970702 		slli	a4,a5,32
 352 0194 634E0700 		bltz	a4,.L28
  15:src/semaphore.cpp **** }
 353              		.loc 1 15 12
 354 0198 13050000 		li	a0,0
 355              	.LVL32:
 356              	.L20:
  16:src/semaphore.cpp **** 
 357              		.loc 1 16 1
 358 019c 83308101 		ld	ra,24(sp)
 359              		.cfi_remember_state
 360              		.cfi_restore 1
 361 01a0 03340101 		ld	s0,16(sp)
 362              		.cfi_restore 8
GAS LISTING /tmp/ccyr0A5f.s 			page 11


 363              		.cfi_def_cfa 2, 32
 364 01a4 83348100 		ld	s1,8(sp)
 365              		.cfi_restore 9
 366              	.LVL33:
 367 01a8 13010102 		addi	sp,sp,32
 368              		.cfi_def_cfa_offset 0
 369 01ac 67800000 		jr	ra
 370              	.LVL34:
 371              	.L28:
 372              		.cfi_restore_state
  10:src/semaphore.cpp ****         if(this->closed) {
 373              		.loc 1 10 9 is_stmt 1
  10:src/semaphore.cpp ****         if(this->closed) {
 374              		.loc 1 10 14 is_stmt 0
 375 01b0 97000000 		call	_ZN3Sem5blockEv
 375      E7800000 
 376              	.LVL35:
  11:src/semaphore.cpp ****             return -1;
 377              		.loc 1 11 9 is_stmt 1
  11:src/semaphore.cpp ****             return -1;
 378              		.loc 1 11 18 is_stmt 0
 379 01b8 83C74400 		lbu	a5,4(s1)
  11:src/semaphore.cpp ****             return -1;
 380              		.loc 1 11 9
 381 01bc 639A0700 		bnez	a5,.L23
  15:src/semaphore.cpp **** }
 382              		.loc 1 15 12
 383 01c0 13050000 		li	a0,0
 384 01c4 6FF09FFD 		j	.L20
 385              	.LVL36:
 386              	.L21:
 387              		.cfi_def_cfa_register 2
 388              		.cfi_restore 1
 389              		.cfi_restore 8
 390              		.cfi_restore 9
   7:src/semaphore.cpp ****     }
 391              		.loc 1 7 17
 392 01c8 1305F0FF 		li	a0,-1
 393              	.LVL37:
  16:src/semaphore.cpp **** 
 394              		.loc 1 16 1
 395 01cc 67800000 		ret
 396              	.LVL38:
 397              	.L23:
 398              		.cfi_def_cfa_register 8
 399              		.cfi_offset 1, -8
 400              		.cfi_offset 8, -16
 401              		.cfi_offset 9, -24
  12:src/semaphore.cpp ****         }
 402              		.loc 1 12 21
 403 01d0 1305F0FF 		li	a0,-1
 404 01d4 6FF09FFC 		j	.L20
 405              		.cfi_endproc
 406              	.LFE38:
 408              		.align	2
 409              		.globl	_ZN3Sem7unblockEv
 411              	_ZN3Sem7unblockEv:
GAS LISTING /tmp/ccyr0A5f.s 			page 12


 412              	.LFB43:
  55:src/semaphore.cpp **** 
  56:src/semaphore.cpp **** void Sem::unblock(){
 413              		.loc 1 56 20 is_stmt 1
 414              		.cfi_startproc
 415              	.LVL39:
 416 01d8 130101FE 		addi	sp,sp,-32
 417              		.cfi_def_cfa_offset 32
 418 01dc 233C1100 		sd	ra,24(sp)
 419 01e0 23388100 		sd	s0,16(sp)
 420 01e4 23349100 		sd	s1,8(sp)
 421              		.cfi_offset 1, -8
 422              		.cfi_offset 8, -16
 423              		.cfi_offset 9, -24
 424 01e8 13040102 		addi	s0,sp,32
 425              		.cfi_def_cfa 8, 0
 426 01ec 93070500 		mv	a5,a0
  57:src/semaphore.cpp ****     TCB* t = blocked.removeFirst();
 427              		.loc 1 57 5
 428              	.LVL40:
 429              	.LBB73:
 430              	.LBB74:
  63:src/../h/list.hpp **** 
 431              		.loc 3 63 14 is_stmt 0
 432 01f0 03358500 		ld	a0,8(a0)
 433              	.LVL41:
  63:src/../h/list.hpp **** 
 434              		.loc 3 63 9
 435 01f4 63040504 		beqz	a0,.L32
 436              	.LVL42:
  66:src/../h/list.hpp ****         if (!head) { tail = 0; }
 437              		.loc 3 66 22
 438 01f8 03378500 		ld	a4,8(a0)
  66:src/../h/list.hpp ****         if (!head) { tail = 0; }
 439              		.loc 3 66 9
 440 01fc 23B4E700 		sd	a4,8(a5)
  67:src/../h/list.hpp **** 
 441              		.loc 3 67 9
 442 0200 630A0702 		beqz	a4,.L34
 443              	.L31:
  69:src/../h/list.hpp ****         delete elem;
 444              		.loc 3 69 12
 445 0204 83340500 		ld	s1,0(a0)
 446              	.LVL43:
 447              	.LBB75:
 448              	.LBB76:
  25:src/../h/list.hpp ****         }
 449              		.loc 3 25 38
 450 0208 97000000 		call	_ZN15MemoryAllocator8mem_freeEPv@plt
 450      E7800000 
 451              	.LVL44:
 452              	.L30:
 453              	.LBE76:
 454              	.LBE75:
 455              	.LBE74:
 456              	.LBE73:
  58:src/semaphore.cpp ****     t->setBlocked(false);
GAS LISTING /tmp/ccyr0A5f.s 			page 13


 457              		.loc 1 58 5 is_stmt 1
 458              	.LBB78:
 459              	.LBB79:
 460              		.loc 4 26 35
 461              		.loc 4 26 49 is_stmt 0
 462 0210 A3800402 		sb	zero,33(s1)
 463              	.LVL45:
 464              	.LBE79:
 465              	.LBE78:
  59:src/semaphore.cpp ****     Scheduler::put(t);
 466              		.loc 1 59 5 is_stmt 1
 467              		.loc 1 59 19 is_stmt 0
 468 0214 13850400 		mv	a0,s1
 469 0218 97000000 		call	_ZN9Scheduler3putEP3TCB@plt
 469      E7800000 
 470              	.LVL46:
  60:src/semaphore.cpp **** }...
 471              		.loc 1 60 1
 472 0220 83308101 		ld	ra,24(sp)
 473              		.cfi_remember_state
 474              		.cfi_restore 1
 475 0224 03340101 		ld	s0,16(sp)
 476              		.cfi_restore 8
 477              		.cfi_def_cfa 2, 32
 478 0228 83348100 		ld	s1,8(sp)
 479              		.cfi_restore 9
 480              	.LVL47:
 481 022c 13010102 		addi	sp,sp,32
 482              		.cfi_def_cfa_offset 0
 483 0230 67800000 		jr	ra
 484              	.LVL48:
 485              	.L34:
 486              		.cfi_restore_state
 487              	.LBB80:
 488              	.LBB77:
  67:src/../h/list.hpp **** 
 489              		.loc 3 67 22
 490 0234 23B80700 		sd	zero,16(a5)
 491 0238 6FF0DFFC 		j	.L31
 492              	.LVL49:
 493              	.L32:
  63:src/../h/list.hpp **** 
 494              		.loc 3 63 29
 495 023c 93040500 		mv	s1,a0
 496 0240 6FF01FFD 		j	.L30
 497              	.LBE77:
 498              	.LBE80:
 499              		.cfi_endproc
 500              	.LFE43:
 502              		.align	2
 503              		.globl	_ZN3Sem6signalEv
 505              	_ZN3Sem6signalEv:
 506              	.LFB39:
  18:src/semaphore.cpp **** int Sem::signal() {
 507              		.loc 1 18 19 is_stmt 1
 508              		.cfi_startproc
 509              	.LVL50:
GAS LISTING /tmp/ccyr0A5f.s 			page 14


  19:src/semaphore.cpp ****     if(this->closed) {
 510              		.loc 1 19 5
  19:src/semaphore.cpp ****     if(this->closed) {
 511              		.loc 1 19 14 is_stmt 0
 512 0244 83474500 		lbu	a5,4(a0)
  19:src/semaphore.cpp ****     if(this->closed) {
 513              		.loc 1 19 5
 514 0248 63960704 		bnez	a5,.L37
  22:src/semaphore.cpp ****     if((int)++this->value <= 0) {
 515              		.loc 1 22 5 is_stmt 1
  22:src/semaphore.cpp ****     if((int)++this->value <= 0) {
 516              		.loc 1 22 21 is_stmt 0
 517 024c 83270500 		lw	a5,0(a0)
  22:src/semaphore.cpp ****     if((int)++this->value <= 0) {
 518              		.loc 1 22 13
 519 0250 9B871700 		addiw	a5,a5,1
  22:src/semaphore.cpp ****     if((int)++this->value <= 0) {
 520              		.loc 1 22 27
 521 0254 2320F500 		sw	a5,0(a0)
  22:src/semaphore.cpp ****     if((int)++this->value <= 0) {
 522              		.loc 1 22 8
 523 0258 9B870700 		sext.w	a5,a5
  22:src/semaphore.cpp ****     if((int)++this->value <= 0) {
 524              		.loc 1 22 5
 525 025c 6356F000 		blez	a5,.L43
  25:src/semaphore.cpp ****     return 0;
 526              		.loc 1 25 12
 527 0260 13050000 		li	a0,0
 528              	.LVL51:
  26:src/semaphore.cpp **** }
 529              		.loc 1 26 1
 530 0264 67800000 		ret
 531              	.LVL52:
 532              	.L43:
  18:src/semaphore.cpp **** int Sem::signal() {
 533              		.loc 1 18 19
 534 0268 130101FF 		addi	sp,sp,-16
 535              		.cfi_def_cfa_offset 16
 536 026c 23341100 		sd	ra,8(sp)
 537 0270 23308100 		sd	s0,0(sp)
 538              		.cfi_offset 1, -8
 539              		.cfi_offset 8, -16
 540 0274 13040101 		addi	s0,sp,16
 541              		.cfi_def_cfa 8, 0
  23:src/semaphore.cpp ****         unblock();
 542              		.loc 1 23 9 is_stmt 1
  23:src/semaphore.cpp ****         unblock();
 543              		.loc 1 23 16 is_stmt 0
 544 0278 97000000 		call	_ZN3Sem7unblockEv
 544      E7800000 
 545              	.LVL53:
  25:src/semaphore.cpp ****     return 0;
 546              		.loc 1 25 12
 547 0280 13050000 		li	a0,0
  26:src/semaphore.cpp **** }
 548              		.loc 1 26 1
 549 0284 83308100 		ld	ra,8(sp)
GAS LISTING /tmp/ccyr0A5f.s 			page 15


 550              		.cfi_restore 1
 551 0288 03340100 		ld	s0,0(sp)
 552              		.cfi_restore 8
 553              		.cfi_def_cfa 2, 16
 554 028c 13010101 		addi	sp,sp,16
 555              		.cfi_def_cfa_offset 0
 556 0290 67800000 		jr	ra
 557              	.LVL54:
 558              	.L37:
  20:src/semaphore.cpp ****         return -1;
 559              		.loc 1 20 17
 560 0294 1305F0FF 		li	a0,-1
 561              	.LVL55:
 562 0298 67800000 		ret
 563              		.cfi_endproc
 564              	.LFE39:
 566              	.Letext0:
 567              		.file 5 "src/../h/../lib/hw.h"
 568              		.file 6 "src/../h/memoryAllocator.hpp"
 569              		.file 7 "src/../h/scheduler.hpp"
 570              		.file 8 "src/../h/syscall_c.hpp"
GAS LISTING /tmp/ccyr0A5f.s 			page 16

