GAS LISTING /tmp/ccg3Talf.s 			page 1


   1              		.file	"syscall_cpp.cpp"
   2              		.option pic
   3              		.option norelax
   4              		.text
   5              	.Ltext0:
   6              		.section	.text._ZN6Thread10runWrapperEPv,"axG",@progbits,_ZN6Thread10runWrapperEPv,comdat
   7              		.align	2
   8              		.weak	_ZN6Thread10runWrapperEPv
  10              	_ZN6Thread10runWrapperEPv:
  11              	.LFB38:
  12              		.file 1 "src/../h/syscall_cpp.hpp"
   1:src/../h/syscall_cpp.hpp **** #ifndef syscall_cpp
   2:src/../h/syscall_cpp.hpp **** #define syscall_cpp
   3:src/../h/syscall_cpp.hpp **** 
   4:src/../h/syscall_cpp.hpp **** #include "syscall_c.hpp"
   5:src/../h/syscall_cpp.hpp **** 
   6:src/../h/syscall_cpp.hpp **** void* operator new(size_t size);
   7:src/../h/syscall_cpp.hpp **** void operator delete(void* p) noexcept;
   8:src/../h/syscall_cpp.hpp **** 
   9:src/../h/syscall_cpp.hpp **** class Thread {
  10:src/../h/syscall_cpp.hpp **** public:
  11:src/../h/syscall_cpp.hpp ****     Thread(void (*body)(void*), void* arg);
  12:src/../h/syscall_cpp.hpp ****     virtual ~Thread();
  13:src/../h/syscall_cpp.hpp **** 
  14:src/../h/syscall_cpp.hpp ****     int start();
  15:src/../h/syscall_cpp.hpp **** 
  16:src/../h/syscall_cpp.hpp **** //    int getId();
  17:src/../h/syscall_cpp.hpp ****     
  18:src/../h/syscall_cpp.hpp ****     void join();
  19:src/../h/syscall_cpp.hpp **** 
  20:src/../h/syscall_cpp.hpp ****     static void dispatch();
  21:src/../h/syscall_cpp.hpp ****     static int sleep(time_t time);
  22:src/../h/syscall_cpp.hpp **** 
  23:src/../h/syscall_cpp.hpp **** protected:
  24:src/../h/syscall_cpp.hpp ****     Thread();
  25:src/../h/syscall_cpp.hpp ****     virtual void run();
  26:src/../h/syscall_cpp.hpp **** 
  27:src/../h/syscall_cpp.hpp **** private:
  28:src/../h/syscall_cpp.hpp ****     thread_t myHandle;
  29:src/../h/syscall_cpp.hpp ****     void (*body)(void*);
  30:src/../h/syscall_cpp.hpp ****     void* arg;
  31:src/../h/syscall_cpp.hpp **** 
  32:src/../h/syscall_cpp.hpp ****     //wrapper za poziv run() metode
  33:src/../h/syscall_cpp.hpp ****     static void runWrapper(void* thread) {
  13              		.loc 1 33 17
  14              		.cfi_startproc
  15              	.LVL0:
  34:src/../h/syscall_cpp.hpp ****         if(thread) {
  16              		.loc 1 34 9
  17 0000 63080502 		beqz	a0,.L4
  33:src/../h/syscall_cpp.hpp ****         if(thread) {
  18              		.loc 1 33 17 is_stmt 0
  19 0004 130101FF 		addi	sp,sp,-16
  20              		.cfi_def_cfa_offset 16
  21 0008 23341100 		sd	ra,8(sp)
  22 000c 23308100 		sd	s0,0(sp)
  23              		.cfi_offset 1, -8
GAS LISTING /tmp/ccg3Talf.s 			page 2


  24              		.cfi_offset 8, -16
  25 0010 13040101 		addi	s0,sp,16
  26              		.cfi_def_cfa 8, 0
  35:src/../h/syscall_cpp.hpp ****             ((Thread*)thread)->run();
  27              		.loc 1 35 13 is_stmt 1
  28              		.loc 1 35 36 is_stmt 0
  29 0014 83370500 		ld	a5,0(a0)
  30 0018 83B70701 		ld	a5,16(a5)
  31              		.loc 1 35 35
  32 001c E7800700 		jalr	a5
  33              	.LVL1:
  36:src/../h/syscall_cpp.hpp ****         }
  37:src/../h/syscall_cpp.hpp ****     }
  34              		.loc 1 37 5
  35 0020 83308100 		ld	ra,8(sp)
  36              		.cfi_restore 1
  37 0024 03340100 		ld	s0,0(sp)
  38              		.cfi_restore 8
  39              		.cfi_def_cfa 2, 16
  40 0028 13010101 		addi	sp,sp,16
  41              		.cfi_def_cfa_offset 0
  42 002c 67800000 		jr	ra
  43              	.LVL2:
  44              	.L4:
  45 0030 67800000 		ret
  46              		.cfi_endproc
  47              	.LFE38:
  49              		.text
  50              		.align	2
  51              		.globl	_ZN6Thread3runEv
  53              	_ZN6Thread3runEv:
  54              	.LFB52:
  55              		.file 2 "src/syscall_cpp.cpp"
   1:src/syscall_cpp.cpp **** 
   2:src/syscall_cpp.cpp **** #include "../h/syscall_c.hpp"
   3:src/syscall_cpp.cpp **** #include "../h/syscall_cpp.hpp"
   4:src/syscall_cpp.cpp **** 
   5:src/syscall_cpp.cpp **** 
   6:src/syscall_cpp.cpp **** void Thread::dispatch() {
   7:src/syscall_cpp.cpp ****     thread_dispatch();
   8:src/syscall_cpp.cpp **** }
   9:src/syscall_cpp.cpp **** 
  10:src/syscall_cpp.cpp **** Thread::Thread(void (*body)(void *), void *arg) {
  11:src/syscall_cpp.cpp ****     thread_create(&this->myHandle, body, arg);
  12:src/syscall_cpp.cpp **** }
  13:src/syscall_cpp.cpp **** 
  14:src/syscall_cpp.cpp **** void Thread::join() {
  15:src/syscall_cpp.cpp ****     thread_join(myHandle);
  16:src/syscall_cpp.cpp **** }
  17:src/syscall_cpp.cpp **** 
  18:src/syscall_cpp.cpp **** Thread::~Thread() {
  19:src/syscall_cpp.cpp ****     //thread_exit();
  20:src/syscall_cpp.cpp ****     delete this->myHandle;
  21:src/syscall_cpp.cpp **** }
  22:src/syscall_cpp.cpp **** 
  23:src/syscall_cpp.cpp **** int Thread::start() {
  24:src/syscall_cpp.cpp ****     thread_start(this->myHandle);
GAS LISTING /tmp/ccg3Talf.s 			page 3


  25:src/syscall_cpp.cpp ****     return 0;
  26:src/syscall_cpp.cpp **** }
  27:src/syscall_cpp.cpp **** 
  28:src/syscall_cpp.cpp **** //int Thread::getId() {
  29:src/syscall_cpp.cpp **** //    return getThreadId();
  30:src/syscall_cpp.cpp **** //}
  31:src/syscall_cpp.cpp **** 
  32:src/syscall_cpp.cpp **** Thread::Thread() {
  33:src/syscall_cpp.cpp ****     thread_create_without_start(&this->myHandle, runWrapper, this);
  34:src/syscall_cpp.cpp **** }
  35:src/syscall_cpp.cpp **** 
  36:src/syscall_cpp.cpp **** void Thread::run() {    
  56              		.loc 2 36 20 is_stmt 1
  57              		.cfi_startproc
  58              	.LVL3:
  59 0000 130101FF 		addi	sp,sp,-16
  60              		.cfi_def_cfa_offset 16
  61 0004 23348100 		sd	s0,8(sp)
  62              		.cfi_offset 8, -8
  63 0008 13040101 		addi	s0,sp,16
  64              		.cfi_def_cfa 8, 0
  37:src/syscall_cpp.cpp ****     //This is empty because it is supposed to be overriden
  38:src/syscall_cpp.cpp **** }
  65              		.loc 2 38 1 is_stmt 0
  66 000c 03348100 		ld	s0,8(sp)
  67              		.cfi_restore 8
  68              		.cfi_def_cfa 2, 16
  69 0010 13010101 		addi	sp,sp,16
  70              		.cfi_def_cfa_offset 0
  71 0014 67800000 		jr	ra
  72              		.cfi_endproc
  73              	.LFE52:
  75              		.align	2
  76              		.globl	_ZN6ThreadD2Ev
  78              	_ZN6ThreadD2Ev:
  79              	.LFB45:
  18:src/syscall_cpp.cpp ****     //thread_exit();
  80              		.loc 2 18 1 is_stmt 1
  81              		.cfi_startproc
  82              		.cfi_personality 0x9b,DW.ref.__gxx_personality_v0
  83              		.cfi_lsda 0x1b,.LLSDA45
  84              	.LVL4:
  85 0018 130101FE 		addi	sp,sp,-32
  86              		.cfi_def_cfa_offset 32
  87 001c 233C1100 		sd	ra,24(sp)
  88 0020 23388100 		sd	s0,16(sp)
  89 0024 23349100 		sd	s1,8(sp)
  90              		.cfi_offset 1, -8
  91              		.cfi_offset 8, -16
  92              		.cfi_offset 9, -24
  93 0028 13040102 		addi	s0,sp,32
  94              		.cfi_def_cfa 8, 0
  95              	.LBB8:
  18:src/syscall_cpp.cpp ****     //thread_exit();
  96              		.loc 2 18 17 is_stmt 0
  97 002c 97070000 		lla	a5,_ZTV6Thread+16
  97      93870700 
GAS LISTING /tmp/ccg3Talf.s 			page 4


  98 0034 2330F500 		sd	a5,0(a0)
  20:src/syscall_cpp.cpp **** }
  99              		.loc 2 20 5 is_stmt 1
  20:src/syscall_cpp.cpp **** }
 100              		.loc 2 20 18 is_stmt 0
 101 0038 83348500 		ld	s1,8(a0)
  20:src/syscall_cpp.cpp **** }
 102              		.loc 2 20 26
 103 003c 63800402 		beqz	s1,.L9
 104              	.LVL5:
 105              	.LBB9:
 106              	.LBB10:
 107              		.file 3 "src/../h/tcb.hpp"
   1:src/../h/tcb.hpp **** #ifndef OS1_VEZBE07_RISCV_CONTEXT_SWITCH_2_INTERRUPT_TCB_HPP
   2:src/../h/tcb.hpp **** #define OS1_VEZBE07_RISCV_CONTEXT_SWITCH_2_INTERRUPT_TCB_HPP
   3:src/../h/tcb.hpp **** 
   4:src/../h/tcb.hpp **** #include "../lib/hw.h"
   5:src/../h/tcb.hpp **** #include "scheduler.hpp"
   6:src/../h/tcb.hpp **** #include "memoryAllocator.hpp"
   7:src/../h/tcb.hpp **** #include "print.hpp"
   8:src/../h/tcb.hpp **** 
   9:src/../h/tcb.hpp **** 
  10:src/../h/tcb.hpp **** // Thread Control Block
  11:src/../h/tcb.hpp **** 
  12:src/../h/tcb.hpp **** 
  13:src/../h/tcb.hpp **** class TCB
  14:src/../h/tcb.hpp **** {
  15:src/../h/tcb.hpp **** public:
  16:src/../h/tcb.hpp ****     static int id;
  17:src/../h/tcb.hpp **** 
  18:src/../h/tcb.hpp ****     ~TCB() { delete[] stack; }
 108              		.loc 3 18 14 is_stmt 1
 109              		.loc 3 18 23 is_stmt 0
 110 0040 03B58400 		ld	a0,8(s1)
 111              	.LVL6:
 112              		.loc 3 18 28
 113 0044 63060500 		beqz	a0,.L11
 114              		.loc 3 18 23
 115 0048 97000000 		call	_ZdaPv@plt
 115      E7800000 
 116              	.LVL7:
 117              	.L11:
 118              	.LBE10:
 119              	.LBE9:
 120              	.LBB11:
 121              	.LBB12:
  19:src/../h/tcb.hpp **** 
  20:src/../h/tcb.hpp ****     bool isFinished() const { return finished; }
  21:src/../h/tcb.hpp **** 
  22:src/../h/tcb.hpp ****     void setFinished(bool value) { finished = value; }
  23:src/../h/tcb.hpp **** 
  24:src/../h/tcb.hpp ****     bool isBlocked() const { return this->blocked; }
  25:src/../h/tcb.hpp **** 
  26:src/../h/tcb.hpp ****     void setBlocked(bool value) { this->blocked = value; }
  27:src/../h/tcb.hpp **** 
  28:src/../h/tcb.hpp ****     bool isMain() const { return this->main; }
  29:src/../h/tcb.hpp **** 
GAS LISTING /tmp/ccg3Talf.s 			page 5


  30:src/../h/tcb.hpp ****     int getMyId() const { return myId; }
  31:src/../h/tcb.hpp **** 
  32:src/../h/tcb.hpp ****     static void setMaximumThreads(int num_of_threads){
  33:src/../h/tcb.hpp ****         int n = (num_of_threads == 0 ? 5 : num_of_threads);
  34:src/../h/tcb.hpp ****         thread_limit = n;
  35:src/../h/tcb.hpp ****     }
  36:src/../h/tcb.hpp **** 
  37:src/../h/tcb.hpp ****     using Body = void (*)(void*);
  38:src/../h/tcb.hpp **** 
  39:src/../h/tcb.hpp ****     static TCB *createThread(Body body, void* arg, void* stack);
  40:src/../h/tcb.hpp **** 
  41:src/../h/tcb.hpp ****     static TCB *createThreadWithoutStarting(Body body, void* arg, void* stack);
  42:src/../h/tcb.hpp **** 
  43:src/../h/tcb.hpp ****     static void startThread(TCB* tcbToStart) {
  44:src/../h/tcb.hpp ****         Scheduler::put(tcbToStart);
  45:src/../h/tcb.hpp ****     }
  46:src/../h/tcb.hpp **** 
  47:src/../h/tcb.hpp ****     static void yield();
  48:src/../h/tcb.hpp **** 
  49:src/../h/tcb.hpp ****     static TCB *running;
  50:src/../h/tcb.hpp **** 
  51:src/../h/tcb.hpp ****     void* operator new(size_t size) {
  52:src/../h/tcb.hpp ****         return MemoryAllocator::mem_alloc(size);
  53:src/../h/tcb.hpp ****     }
  54:src/../h/tcb.hpp ****     void* operator new[](size_t size) {
  55:src/../h/tcb.hpp ****         return MemoryAllocator::mem_alloc(size);
  56:src/../h/tcb.hpp ****     }
  57:src/../h/tcb.hpp ****     
  58:src/../h/tcb.hpp ****     void operator delete(void *ptr) {
  59:src/../h/tcb.hpp ****         MemoryAllocator::mem_free(ptr);
 122              		.loc 3 59 9 is_stmt 1
 123              		.loc 3 59 34 is_stmt 0
 124 0050 13850400 		mv	a0,s1
 125 0054 97000000 		call	_ZN15MemoryAllocator8mem_freeEPv@plt
 125      E7800000 
 126              	.LVL8:
 127              	.L9:
 128              	.LBE12:
 129              	.LBE11:
 130              	.LBE8:
  21:src/syscall_cpp.cpp **** 
 131              		.loc 2 21 1
 132 005c 83308101 		ld	ra,24(sp)
 133              		.cfi_restore 1
 134 0060 03340101 		ld	s0,16(sp)
 135              		.cfi_restore 8
 136              		.cfi_def_cfa 2, 32
 137 0064 83348100 		ld	s1,8(sp)
 138              		.cfi_restore 9
 139 0068 13010102 		addi	sp,sp,32
 140              		.cfi_def_cfa_offset 0
 141 006c 67800000 		jr	ra
 142              		.cfi_endproc
 143              	.LFE45:
 144              		.globl	__gxx_personality_v0
 145              		.section	.gcc_except_table,"a",@progbits
 146              	.LLSDA45:
GAS LISTING /tmp/ccg3Talf.s 			page 6


 147 0000 FF       		.byte	0xff
 148 0001 FF       		.byte	0xff
 149 0002 03       		.byte	0x3
 150 0003 00       		.byte	0
 151              		.text
 153              		.globl	_ZN6ThreadD1Ev
 154              		.set	_ZN6ThreadD1Ev,_ZN6ThreadD2Ev
 155              		.align	2
 156              		.globl	_ZN6ThreadD0Ev
 158              	_ZN6ThreadD0Ev:
 159              	.LFB47:
  18:src/syscall_cpp.cpp ****     //thread_exit();
 160              		.loc 2 18 1 is_stmt 1
 161              		.cfi_startproc
 162              	.LVL9:
 163 0070 130101FE 		addi	sp,sp,-32
 164              		.cfi_def_cfa_offset 32
 165 0074 233C1100 		sd	ra,24(sp)
 166 0078 23388100 		sd	s0,16(sp)
 167 007c 23349100 		sd	s1,8(sp)
 168              		.cfi_offset 1, -8
 169              		.cfi_offset 8, -16
 170              		.cfi_offset 9, -24
 171 0080 13040102 		addi	s0,sp,32
 172              		.cfi_def_cfa 8, 0
 173 0084 93040500 		mv	s1,a0
  21:src/syscall_cpp.cpp **** 
 174              		.loc 2 21 1 is_stmt 0
 175 0088 97000000 		call	_ZN6ThreadD1Ev
 175      E7800000 
 176              	.LVL10:
 177 0090 13850400 		mv	a0,s1
 178 0094 97000000 		call	_ZdlPv@plt
 178      E7800000 
 179              	.LVL11:
 180 009c 83308101 		ld	ra,24(sp)
 181              		.cfi_restore 1
 182 00a0 03340101 		ld	s0,16(sp)
 183              		.cfi_restore 8
 184              		.cfi_def_cfa 2, 32
 185 00a4 83348100 		ld	s1,8(sp)
 186              		.cfi_restore 9
 187              	.LVL12:
 188 00a8 13010102 		addi	sp,sp,32
 189              		.cfi_def_cfa_offset 0
 190 00ac 67800000 		jr	ra
 191              		.cfi_endproc
 192              	.LFE47:
 194              		.align	2
 195              		.globl	_ZN9SemaphoreD2Ev
 197              	_ZN9SemaphoreD2Ev:
 198              	.LFB58:
  39:src/syscall_cpp.cpp **** 
  40:src/syscall_cpp.cpp **** int Thread::sleep(time_t time) {
  41:src/syscall_cpp.cpp ****     return 0;
  42:src/syscall_cpp.cpp **** }
  43:src/syscall_cpp.cpp **** 
GAS LISTING /tmp/ccg3Talf.s 			page 7


  44:src/syscall_cpp.cpp **** Semaphore::Semaphore(unsigned int init) {
  45:src/syscall_cpp.cpp ****     sem_open(&this->myHandle, init);
  46:src/syscall_cpp.cpp **** }
  47:src/syscall_cpp.cpp **** 
  48:src/syscall_cpp.cpp **** Semaphore::~Semaphore() {
 199              		.loc 2 48 1 is_stmt 1
 200              		.cfi_startproc
 201              		.cfi_personality 0x9b,DW.ref.__gxx_personality_v0
 202              		.cfi_lsda 0x1b,.LLSDA58
 203              	.LVL13:
 204 00b0 130101FF 		addi	sp,sp,-16
 205              		.cfi_def_cfa_offset 16
 206 00b4 23341100 		sd	ra,8(sp)
 207 00b8 23308100 		sd	s0,0(sp)
 208              		.cfi_offset 1, -8
 209              		.cfi_offset 8, -16
 210 00bc 13040101 		addi	s0,sp,16
 211              		.cfi_def_cfa 8, 0
 212              	.LBB13:
 213              		.loc 2 48 23 is_stmt 0
 214 00c0 97070000 		lla	a5,_ZTV9Semaphore+16
 214      93870700 
 215 00c8 2330F500 		sd	a5,0(a0)
  49:src/syscall_cpp.cpp ****     sem_close(this->myHandle);
 216              		.loc 2 49 5 is_stmt 1
 217              		.loc 2 49 14 is_stmt 0
 218 00cc 03358500 		ld	a0,8(a0)
 219              	.LVL14:
 220 00d0 97000000 		call	_Z9sem_closeP3Sem@plt
 220      E7800000 
 221              	.LVL15:
 222              	.LBE13:
  50:src/syscall_cpp.cpp **** }
 223              		.loc 2 50 1
 224 00d8 83308100 		ld	ra,8(sp)
 225              		.cfi_restore 1
 226 00dc 03340100 		ld	s0,0(sp)
 227              		.cfi_restore 8
 228              		.cfi_def_cfa 2, 16
 229 00e0 13010101 		addi	sp,sp,16
 230              		.cfi_def_cfa_offset 0
 231 00e4 67800000 		jr	ra
 232              		.cfi_endproc
 233              	.LFE58:
 234              		.section	.gcc_except_table
 235              	.LLSDA58:
 236 0004 FF       		.byte	0xff
 237 0005 FF       		.byte	0xff
 238 0006 03       		.byte	0x3
 239 0007 00       		.byte	0
 240              		.text
 242              		.globl	_ZN9SemaphoreD1Ev
 243              		.set	_ZN9SemaphoreD1Ev,_ZN9SemaphoreD2Ev
 244              		.align	2
 245              		.globl	_ZN9SemaphoreD0Ev
 247              	_ZN9SemaphoreD0Ev:
 248              	.LFB60:
GAS LISTING /tmp/ccg3Talf.s 			page 8


  48:src/syscall_cpp.cpp ****     sem_close(this->myHandle);
 249              		.loc 2 48 1 is_stmt 1
 250              		.cfi_startproc
 251              	.LVL16:
 252 00e8 130101FE 		addi	sp,sp,-32
 253              		.cfi_def_cfa_offset 32
 254 00ec 233C1100 		sd	ra,24(sp)
 255 00f0 23388100 		sd	s0,16(sp)
 256 00f4 23349100 		sd	s1,8(sp)
 257              		.cfi_offset 1, -8
 258              		.cfi_offset 8, -16
 259              		.cfi_offset 9, -24
 260 00f8 13040102 		addi	s0,sp,32
 261              		.cfi_def_cfa 8, 0
 262 00fc 93040500 		mv	s1,a0
 263              		.loc 2 50 1 is_stmt 0
 264 0100 97000000 		call	_ZN9SemaphoreD1Ev
 264      E7800000 
 265              	.LVL17:
 266 0108 13850400 		mv	a0,s1
 267 010c 97000000 		call	_ZdlPv@plt
 267      E7800000 
 268              	.LVL18:
 269 0114 83308101 		ld	ra,24(sp)
 270              		.cfi_restore 1
 271 0118 03340101 		ld	s0,16(sp)
 272              		.cfi_restore 8
 273              		.cfi_def_cfa 2, 32
 274 011c 83348100 		ld	s1,8(sp)
 275              		.cfi_restore 9
 276              	.LVL19:
 277 0120 13010102 		addi	sp,sp,32
 278              		.cfi_def_cfa_offset 0
 279 0124 67800000 		jr	ra
 280              		.cfi_endproc
 281              	.LFE60:
 283              		.align	2
 284              		.globl	_ZN6Thread8dispatchEv
 286              	_ZN6Thread8dispatchEv:
 287              	.LFB39:
   6:src/syscall_cpp.cpp ****     thread_dispatch();
 288              		.loc 2 6 25 is_stmt 1
 289              		.cfi_startproc
 290 0128 130101FF 		addi	sp,sp,-16
 291              		.cfi_def_cfa_offset 16
 292 012c 23341100 		sd	ra,8(sp)
 293 0130 23308100 		sd	s0,0(sp)
 294              		.cfi_offset 1, -8
 295              		.cfi_offset 8, -16
 296 0134 13040101 		addi	s0,sp,16
 297              		.cfi_def_cfa 8, 0
   7:src/syscall_cpp.cpp **** }
 298              		.loc 2 7 5
   7:src/syscall_cpp.cpp **** }
 299              		.loc 2 7 20 is_stmt 0
 300 0138 97000000 		call	_Z15thread_dispatchv@plt
 300      E7800000 
GAS LISTING /tmp/ccg3Talf.s 			page 9


 301              	.LVL20:
   8:src/syscall_cpp.cpp **** 
 302              		.loc 2 8 1
 303 0140 83308100 		ld	ra,8(sp)
 304              		.cfi_restore 1
 305 0144 03340100 		ld	s0,0(sp)
 306              		.cfi_restore 8
 307              		.cfi_def_cfa 2, 16
 308 0148 13010101 		addi	sp,sp,16
 309              		.cfi_def_cfa_offset 0
 310 014c 67800000 		jr	ra
 311              		.cfi_endproc
 312              	.LFE39:
 314              		.align	2
 315              		.globl	_ZN6ThreadC2EPFvPvES0_
 317              	_ZN6ThreadC2EPFvPvES0_:
 318              	.LFB41:
  10:src/syscall_cpp.cpp ****     thread_create(&this->myHandle, body, arg);
 319              		.loc 2 10 1 is_stmt 1
 320              		.cfi_startproc
 321              	.LVL21:
 322 0150 130101FF 		addi	sp,sp,-16
 323              		.cfi_def_cfa_offset 16
 324 0154 23341100 		sd	ra,8(sp)
 325 0158 23308100 		sd	s0,0(sp)
 326              		.cfi_offset 1, -8
 327              		.cfi_offset 8, -16
 328 015c 13040101 		addi	s0,sp,16
 329              		.cfi_def_cfa 8, 0
 330              	.LBB14:
  10:src/syscall_cpp.cpp ****     thread_create(&this->myHandle, body, arg);
 331              		.loc 2 10 47 is_stmt 0
 332 0160 97070000 		lla	a5,_ZTV6Thread+16
 332      93870700 
 333 0168 2330F500 		sd	a5,0(a0)
  11:src/syscall_cpp.cpp **** }
 334              		.loc 2 11 5 is_stmt 1
  11:src/syscall_cpp.cpp **** }
 335              		.loc 2 11 18 is_stmt 0
 336 016c 13058500 		addi	a0,a0,8
 337              	.LVL22:
 338 0170 97000000 		call	_Z13thread_createPP3TCBPFvPvES2_@plt
 338      E7800000 
 339              	.LVL23:
 340              	.LBE14:
  12:src/syscall_cpp.cpp **** 
 341              		.loc 2 12 1
 342 0178 83308100 		ld	ra,8(sp)
 343              		.cfi_restore 1
 344 017c 03340100 		ld	s0,0(sp)
 345              		.cfi_restore 8
 346              		.cfi_def_cfa 2, 16
 347 0180 13010101 		addi	sp,sp,16
 348              		.cfi_def_cfa_offset 0
 349 0184 67800000 		jr	ra
 350              		.cfi_endproc
 351              	.LFE41:
GAS LISTING /tmp/ccg3Talf.s 			page 10


 353              		.globl	_ZN6ThreadC1EPFvPvES0_
 354              		.set	_ZN6ThreadC1EPFvPvES0_,_ZN6ThreadC2EPFvPvES0_
 355              		.align	2
 356              		.globl	_ZN6Thread4joinEv
 358              	_ZN6Thread4joinEv:
 359              	.LFB43:
  14:src/syscall_cpp.cpp ****     thread_join(myHandle);
 360              		.loc 2 14 21 is_stmt 1
 361              		.cfi_startproc
 362              	.LVL24:
 363 0188 130101FF 		addi	sp,sp,-16
 364              		.cfi_def_cfa_offset 16
 365 018c 23341100 		sd	ra,8(sp)
 366 0190 23308100 		sd	s0,0(sp)
 367              		.cfi_offset 1, -8
 368              		.cfi_offset 8, -16
 369 0194 13040101 		addi	s0,sp,16
 370              		.cfi_def_cfa 8, 0
  15:src/syscall_cpp.cpp **** }
 371              		.loc 2 15 5
  15:src/syscall_cpp.cpp **** }
 372              		.loc 2 15 16 is_stmt 0
 373 0198 03358500 		ld	a0,8(a0)
 374              	.LVL25:
 375 019c 97000000 		call	_Z11thread_joinP3TCB@plt
 375      E7800000 
 376              	.LVL26:
  16:src/syscall_cpp.cpp **** 
 377              		.loc 2 16 1
 378 01a4 83308100 		ld	ra,8(sp)
 379              		.cfi_restore 1
 380 01a8 03340100 		ld	s0,0(sp)
 381              		.cfi_restore 8
 382              		.cfi_def_cfa 2, 16
 383 01ac 13010101 		addi	sp,sp,16
 384              		.cfi_def_cfa_offset 0
 385 01b0 67800000 		jr	ra
 386              		.cfi_endproc
 387              	.LFE43:
 389              		.align	2
 390              		.globl	_ZN6Thread5startEv
 392              	_ZN6Thread5startEv:
 393              	.LFB48:
  23:src/syscall_cpp.cpp ****     thread_start(this->myHandle);
 394              		.loc 2 23 21 is_stmt 1
 395              		.cfi_startproc
 396              	.LVL27:
 397 01b4 130101FF 		addi	sp,sp,-16
 398              		.cfi_def_cfa_offset 16
 399 01b8 23341100 		sd	ra,8(sp)
 400 01bc 23308100 		sd	s0,0(sp)
 401              		.cfi_offset 1, -8
 402              		.cfi_offset 8, -16
 403 01c0 13040101 		addi	s0,sp,16
 404              		.cfi_def_cfa 8, 0
  24:src/syscall_cpp.cpp ****     return 0;
 405              		.loc 2 24 5
GAS LISTING /tmp/ccg3Talf.s 			page 11


  24:src/syscall_cpp.cpp ****     return 0;
 406              		.loc 2 24 17 is_stmt 0
 407 01c4 03358500 		ld	a0,8(a0)
 408              	.LVL28:
 409 01c8 97000000 		call	_Z12thread_startP3TCB@plt
 409      E7800000 
 410              	.LVL29:
  25:src/syscall_cpp.cpp **** }
 411              		.loc 2 25 5 is_stmt 1
  26:src/syscall_cpp.cpp **** 
 412              		.loc 2 26 1 is_stmt 0
 413 01d0 13050000 		li	a0,0
 414 01d4 83308100 		ld	ra,8(sp)
 415              		.cfi_restore 1
 416 01d8 03340100 		ld	s0,0(sp)
 417              		.cfi_restore 8
 418              		.cfi_def_cfa 2, 16
 419 01dc 13010101 		addi	sp,sp,16
 420              		.cfi_def_cfa_offset 0
 421 01e0 67800000 		jr	ra
 422              		.cfi_endproc
 423              	.LFE48:
 425              		.align	2
 426              		.globl	_ZN6ThreadC2Ev
 428              	_ZN6ThreadC2Ev:
 429              	.LFB50:
  32:src/syscall_cpp.cpp ****     thread_create_without_start(&this->myHandle, runWrapper, this);
 430              		.loc 2 32 1 is_stmt 1
 431              		.cfi_startproc
 432              	.LVL30:
 433 01e4 130101FF 		addi	sp,sp,-16
 434              		.cfi_def_cfa_offset 16
 435 01e8 23341100 		sd	ra,8(sp)
 436 01ec 23308100 		sd	s0,0(sp)
 437              		.cfi_offset 1, -8
 438              		.cfi_offset 8, -16
 439 01f0 13040101 		addi	s0,sp,16
 440              		.cfi_def_cfa 8, 0
 441              	.LBB15:
  32:src/syscall_cpp.cpp ****     thread_create_without_start(&this->myHandle, runWrapper, this);
 442              		.loc 2 32 16 is_stmt 0
 443 01f4 97070000 		lla	a5,_ZTV6Thread+16
 443      93870700 
 444 01fc 2330F500 		sd	a5,0(a0)
  33:src/syscall_cpp.cpp **** }
 445              		.loc 2 33 5 is_stmt 1
  33:src/syscall_cpp.cpp **** }
 446              		.loc 2 33 32 is_stmt 0
 447 0200 13060500 		mv	a2,a0
 448 0204 97050000 		lla	a1,_ZN6Thread10runWrapperEPv
 448      93850500 
 449 020c 13058500 		addi	a0,a0,8
 450              	.LVL31:
 451 0210 97000000 		call	_Z27thread_create_without_startPP3TCBPFvPvES2_@plt
 451      E7800000 
 452              	.LVL32:
 453              	.LBE15:
GAS LISTING /tmp/ccg3Talf.s 			page 12


  34:src/syscall_cpp.cpp **** 
 454              		.loc 2 34 1
 455 0218 83308100 		ld	ra,8(sp)
 456              		.cfi_restore 1
 457 021c 03340100 		ld	s0,0(sp)
 458              		.cfi_restore 8
 459              		.cfi_def_cfa 2, 16
 460 0220 13010101 		addi	sp,sp,16
 461              		.cfi_def_cfa_offset 0
 462 0224 67800000 		jr	ra
 463              		.cfi_endproc
 464              	.LFE50:
 466              		.globl	_ZN6ThreadC1Ev
 467              		.set	_ZN6ThreadC1Ev,_ZN6ThreadC2Ev
 468              		.align	2
 469              		.globl	_ZN6Thread5sleepEm
 471              	_ZN6Thread5sleepEm:
 472              	.LFB53:
  40:src/syscall_cpp.cpp ****     return 0;
 473              		.loc 2 40 32 is_stmt 1
 474              		.cfi_startproc
 475              	.LVL33:
 476 0228 130101FF 		addi	sp,sp,-16
 477              		.cfi_def_cfa_offset 16
 478 022c 23348100 		sd	s0,8(sp)
 479              		.cfi_offset 8, -8
 480 0230 13040101 		addi	s0,sp,16
 481              		.cfi_def_cfa 8, 0
  41:src/syscall_cpp.cpp **** }
 482              		.loc 2 41 5
  42:src/syscall_cpp.cpp **** 
 483              		.loc 2 42 1 is_stmt 0
 484 0234 13050000 		li	a0,0
 485              	.LVL34:
 486 0238 03348100 		ld	s0,8(sp)
 487              		.cfi_restore 8
 488              		.cfi_def_cfa 2, 16
 489 023c 13010101 		addi	sp,sp,16
 490              		.cfi_def_cfa_offset 0
 491 0240 67800000 		jr	ra
 492              		.cfi_endproc
 493              	.LFE53:
 495              		.align	2
 496              		.globl	_ZN9SemaphoreC2Ej
 498              	_ZN9SemaphoreC2Ej:
 499              	.LFB55:
  44:src/syscall_cpp.cpp ****     sem_open(&this->myHandle, init);
 500              		.loc 2 44 1 is_stmt 1
 501              		.cfi_startproc
 502              	.LVL35:
 503 0244 130101FF 		addi	sp,sp,-16
 504              		.cfi_def_cfa_offset 16
 505 0248 23341100 		sd	ra,8(sp)
 506 024c 23308100 		sd	s0,0(sp)
 507              		.cfi_offset 1, -8
 508              		.cfi_offset 8, -16
 509 0250 13040101 		addi	s0,sp,16
GAS LISTING /tmp/ccg3Talf.s 			page 13


 510              		.cfi_def_cfa 8, 0
 511              	.LBB16:
  44:src/syscall_cpp.cpp ****     sem_open(&this->myHandle, init);
 512              		.loc 2 44 39 is_stmt 0
 513 0254 97070000 		lla	a5,_ZTV9Semaphore+16
 513      93870700 
 514 025c 2330F500 		sd	a5,0(a0)
  45:src/syscall_cpp.cpp **** }
 515              		.loc 2 45 5 is_stmt 1
  45:src/syscall_cpp.cpp **** }
 516              		.loc 2 45 13 is_stmt 0
 517 0260 13058500 		addi	a0,a0,8
 518              	.LVL36:
 519 0264 97000000 		call	_Z8sem_openPP3Semj@plt
 519      E7800000 
 520              	.LVL37:
 521              	.LBE16:
  46:src/syscall_cpp.cpp **** 
 522              		.loc 2 46 1
 523 026c 83308100 		ld	ra,8(sp)
 524              		.cfi_restore 1
 525 0270 03340100 		ld	s0,0(sp)
 526              		.cfi_restore 8
 527              		.cfi_def_cfa 2, 16
 528 0274 13010101 		addi	sp,sp,16
 529              		.cfi_def_cfa_offset 0
 530 0278 67800000 		jr	ra
 531              		.cfi_endproc
 532              	.LFE55:
 534              		.globl	_ZN9SemaphoreC1Ej
 535              		.set	_ZN9SemaphoreC1Ej,_ZN9SemaphoreC2Ej
 536              		.align	2
 537              		.globl	_ZN9Semaphore4waitEv
 539              	_ZN9Semaphore4waitEv:
 540              	.LFB61:
  51:src/syscall_cpp.cpp **** 
  52:src/syscall_cpp.cpp **** int Semaphore::wait() {
 541              		.loc 2 52 23 is_stmt 1
 542              		.cfi_startproc
 543              	.LVL38:
 544 027c 130101FF 		addi	sp,sp,-16
 545              		.cfi_def_cfa_offset 16
 546 0280 23341100 		sd	ra,8(sp)
 547 0284 23308100 		sd	s0,0(sp)
 548              		.cfi_offset 1, -8
 549              		.cfi_offset 8, -16
 550 0288 13040101 		addi	s0,sp,16
 551              		.cfi_def_cfa 8, 0
  53:src/syscall_cpp.cpp ****     return sem_wait(this->myHandle);
 552              		.loc 2 53 5
 553              		.loc 2 53 20 is_stmt 0
 554 028c 03358500 		ld	a0,8(a0)
 555              	.LVL39:
 556 0290 97000000 		call	_Z8sem_waitP3Sem@plt
 556      E7800000 
 557              	.LVL40:
  54:src/syscall_cpp.cpp **** }
GAS LISTING /tmp/ccg3Talf.s 			page 14


 558              		.loc 2 54 1
 559 0298 83308100 		ld	ra,8(sp)
 560              		.cfi_restore 1
 561 029c 03340100 		ld	s0,0(sp)
 562              		.cfi_restore 8
 563              		.cfi_def_cfa 2, 16
 564 02a0 13010101 		addi	sp,sp,16
 565              		.cfi_def_cfa_offset 0
 566 02a4 67800000 		jr	ra
 567              		.cfi_endproc
 568              	.LFE61:
 570              		.align	2
 571              		.globl	_ZN9Semaphore6signalEv
 573              	_ZN9Semaphore6signalEv:
 574              	.LFB62:
  55:src/syscall_cpp.cpp **** 
  56:src/syscall_cpp.cpp **** int Semaphore::signal() {
 575              		.loc 2 56 25 is_stmt 1
 576              		.cfi_startproc
 577              	.LVL41:
 578 02a8 130101FF 		addi	sp,sp,-16
 579              		.cfi_def_cfa_offset 16
 580 02ac 23341100 		sd	ra,8(sp)
 581 02b0 23308100 		sd	s0,0(sp)
 582              		.cfi_offset 1, -8
 583              		.cfi_offset 8, -16
 584 02b4 13040101 		addi	s0,sp,16
 585              		.cfi_def_cfa 8, 0
  57:src/syscall_cpp.cpp ****     return sem_signal(this->myHandle);
 586              		.loc 2 57 5
 587              		.loc 2 57 22 is_stmt 0
 588 02b8 03358500 		ld	a0,8(a0)
 589              	.LVL42:
 590 02bc 97000000 		call	_Z10sem_signalP3Sem@plt
 590      E7800000 
 591              	.LVL43:
  58:src/syscall_cpp.cpp **** }
 592              		.loc 2 58 1
 593 02c4 83308100 		ld	ra,8(sp)
 594              		.cfi_restore 1
 595 02c8 03340100 		ld	s0,0(sp)
 596              		.cfi_restore 8
 597              		.cfi_def_cfa 2, 16
 598 02cc 13010101 		addi	sp,sp,16
 599              		.cfi_def_cfa_offset 0
 600 02d0 67800000 		jr	ra
 601              		.cfi_endproc
 602              	.LFE62:
 604              		.align	2
 605              		.globl	_ZN7Console4putcEc
 607              	_ZN7Console4putcEc:
 608              	.LFB63:
  59:src/syscall_cpp.cpp **** 
  60:src/syscall_cpp.cpp **** void Console::putc(char c) {
 609              		.loc 2 60 28 is_stmt 1
 610              		.cfi_startproc
 611              	.LVL44:
GAS LISTING /tmp/ccg3Talf.s 			page 15


 612 02d4 130101FF 		addi	sp,sp,-16
 613              		.cfi_def_cfa_offset 16
 614 02d8 23341100 		sd	ra,8(sp)
 615 02dc 23308100 		sd	s0,0(sp)
 616              		.cfi_offset 1, -8
 617              		.cfi_offset 8, -16
 618 02e0 13040101 		addi	s0,sp,16
 619              		.cfi_def_cfa 8, 0
  61:src/syscall_cpp.cpp ****     syscall_c::putc(c);
 620              		.loc 2 61 14
 621              		.loc 2 61 20 is_stmt 0
 622 02e4 97000000 		call	_Z4putcc@plt
 622      E7800000 
 623              	.LVL45:
  62:src/syscall_cpp.cpp **** }
 624              		.loc 2 62 1
 625 02ec 83308100 		ld	ra,8(sp)
 626              		.cfi_restore 1
 627 02f0 03340100 		ld	s0,0(sp)
 628              		.cfi_restore 8
 629              		.cfi_def_cfa 2, 16
 630 02f4 13010101 		addi	sp,sp,16
 631              		.cfi_def_cfa_offset 0
 632 02f8 67800000 		jr	ra
 633              		.cfi_endproc
 634              	.LFE63:
 636              		.align	2
 637              		.globl	_ZN7Console4getcEv
 639              	_ZN7Console4getcEv:
 640              	.LFB64:
  63:src/syscall_cpp.cpp **** 
  64:src/syscall_cpp.cpp **** char Console::getc() {
 641              		.loc 2 64 22 is_stmt 1
 642              		.cfi_startproc
 643 02fc 130101FF 		addi	sp,sp,-16
 644              		.cfi_def_cfa_offset 16
 645 0300 23341100 		sd	ra,8(sp)
 646 0304 23308100 		sd	s0,0(sp)
 647              		.cfi_offset 1, -8
 648              		.cfi_offset 8, -16
 649 0308 13040101 		addi	s0,sp,16
 650              		.cfi_def_cfa 8, 0
  65:src/syscall_cpp.cpp ****     return syscall_c::getc();
 651              		.loc 2 65 5
 652              		.loc 2 65 27 is_stmt 0
 653 030c 97000000 		call	_Z4getcv@plt
 653      E7800000 
 654              	.LVL46:
  66:src/syscall_cpp.cpp **** }
 655              		.loc 2 66 1
 656 0314 83308100 		ld	ra,8(sp)
 657              		.cfi_restore 1
 658 0318 03340100 		ld	s0,0(sp)
 659              		.cfi_restore 8
 660              		.cfi_def_cfa 2, 16
 661 031c 13010101 		addi	sp,sp,16
 662              		.cfi_def_cfa_offset 0
GAS LISTING /tmp/ccg3Talf.s 			page 16


 663 0320 67800000 		jr	ra
 664              		.cfi_endproc
 665              	.LFE64:
 667              		.weak	_ZTV6Thread
 668              		.section	.data.rel.ro.local._ZTV6Thread,"awG",@progbits,_ZTV6Thread,comdat
 669              		.align	3
 672              	_ZTV6Thread:
 673 0000 00000000 		.dword	0
 673      00000000 
 674 0008 00000000 		.dword	0
 674      00000000 
 675 0010 00000000 		.dword	_ZN6ThreadD1Ev
 675      00000000 
 676 0018 00000000 		.dword	_ZN6ThreadD0Ev
 676      00000000 
 677 0020 00000000 		.dword	_ZN6Thread3runEv
 677      00000000 
 678              		.weak	_ZTV9Semaphore
 679              		.section	.data.rel.ro.local._ZTV9Semaphore,"awG",@progbits,_ZTV9Semaphore,comdat
 680              		.align	3
 683              	_ZTV9Semaphore:
 684 0000 00000000 		.dword	0
 684      00000000 
 685 0008 00000000 		.dword	0
 685      00000000 
 686 0010 00000000 		.dword	_ZN9SemaphoreD1Ev
 686      00000000 
 687 0018 00000000 		.dword	_ZN9SemaphoreD0Ev
 687      00000000 
 688              		.text
 689              	.Letext0:
 690              		.file 4 "src/../h/../lib/hw.h"
 691              		.file 5 "src/../h/memoryAllocator.hpp"
 692              		.file 6 "src/../h/list.hpp"
 693              		.file 7 "src/../h/semaphore.hpp"
 694              		.file 8 "src/../h/syscall_c.hpp"
 4620              		.align	3
 4623              	DW.ref.__gxx_personality_v0:
 4624 0000 00000000 		.dword	__gxx_personality_v0
 4624      00000000 
 4625              		.ident	"GCC: (Ubuntu 9.4.0-1ubuntu1~20.04) 9.4.0"
 4626              		.section	.note.GNU-stack,"",@progbits
GAS LISTING /tmp/ccg3Talf.s 			page 17


DEFINED SYMBOLS
                            *ABS*:0000000000000000 syscall_cpp.cpp
     /tmp/ccg3Talf.s:10     .text._ZN6Thread10runWrapperEPv:0000000000000000 _ZN6Thread10runWrapperEPv
     /tmp/ccg3Talf.s:14     .text._ZN6Thread10runWrapperEPv:0000000000000000 .L0 
     /tmp/ccg3Talf.s:16     .text._ZN6Thread10runWrapperEPv:0000000000000000 .L0 
     /tmp/ccg3Talf.s:17     .text._ZN6Thread10runWrapperEPv:0000000000000000 .L0 
     /tmp/ccg3Talf.s:19     .text._ZN6Thread10runWrapperEPv:0000000000000004 .L0 
     /tmp/ccg3Talf.s:20     .text._ZN6Thread10runWrapperEPv:0000000000000008 .L0 
     /tmp/ccg3Talf.s:23     .text._ZN6Thread10runWrapperEPv:0000000000000010 .L0 
     /tmp/ccg3Talf.s:24     .text._ZN6Thread10runWrapperEPv:0000000000000010 .L0 
     /tmp/ccg3Talf.s:26     .text._ZN6Thread10runWrapperEPv:0000000000000014 .L0 
     /tmp/ccg3Talf.s:28     .text._ZN6Thread10runWrapperEPv:0000000000000014 .L0 
     /tmp/ccg3Talf.s:29     .text._ZN6Thread10runWrapperEPv:0000000000000014 .L0 
     /tmp/ccg3Talf.s:32     .text._ZN6Thread10runWrapperEPv:000000000000001c .L0 
     /tmp/ccg3Talf.s:35     .text._ZN6Thread10runWrapperEPv:0000000000000020 .L0 
     /tmp/ccg3Talf.s:36     .text._ZN6Thread10runWrapperEPv:0000000000000024 .L0 
     /tmp/ccg3Talf.s:38     .text._ZN6Thread10runWrapperEPv:0000000000000028 .L0 
     /tmp/ccg3Talf.s:39     .text._ZN6Thread10runWrapperEPv:0000000000000028 .L0 
     /tmp/ccg3Talf.s:41     .text._ZN6Thread10runWrapperEPv:000000000000002c .L0 
     /tmp/ccg3Talf.s:46     .text._ZN6Thread10runWrapperEPv:0000000000000034 .L0 
     /tmp/ccg3Talf.s:53     .text:0000000000000000 _ZN6Thread3runEv
     /tmp/ccg3Talf.s:57     .text:0000000000000000 .L0 
     /tmp/ccg3Talf.s:59     .text:0000000000000000 .L0 
     /tmp/ccg3Talf.s:60     .text:0000000000000004 .L0 
     /tmp/ccg3Talf.s:62     .text:0000000000000008 .L0 
     /tmp/ccg3Talf.s:64     .text:000000000000000c .L0 
     /tmp/ccg3Talf.s:66     .text:000000000000000c .L0 
     /tmp/ccg3Talf.s:67     .text:0000000000000010 .L0 
     /tmp/ccg3Talf.s:68     .text:0000000000000010 .L0 
     /tmp/ccg3Talf.s:70     .text:0000000000000014 .L0 
     /tmp/ccg3Talf.s:72     .text:0000000000000018 .L0 
     /tmp/ccg3Talf.s:78     .text:0000000000000018 _ZN6ThreadD2Ev
     /tmp/ccg3Talf.s:81     .text:0000000000000018 .L0 
     /tmp/ccg3Talf.s:4623   .data.rel.local.DW.ref.__gxx_personality_v0:0000000000000000 DW.ref.__gxx_personality_v0
     /tmp/ccg3Talf.s:85     .text:0000000000000018 .L0 
     /tmp/ccg3Talf.s:86     .text:000000000000001c .L0 
     /tmp/ccg3Talf.s:90     .text:0000000000000028 .L0 
     /tmp/ccg3Talf.s:91     .text:0000000000000028 .L0 
     /tmp/ccg3Talf.s:92     .text:0000000000000028 .L0 
     /tmp/ccg3Talf.s:94     .text:000000000000002c .L0 
     /tmp/ccg3Talf.s:672    .data.rel.ro.local._ZTV6Thread:0000000000000000 _ZTV6Thread
     /tmp/ccg3Talf.s:97     .text:000000000000002c .L0 
     /tmp/ccg3Talf.s:100    .text:0000000000000038 .L0 
     /tmp/ccg3Talf.s:101    .text:0000000000000038 .L0 
     /tmp/ccg3Talf.s:103    .text:000000000000003c .L0 
     /tmp/ccg3Talf.s:109    .text:0000000000000040 .L0 
     /tmp/ccg3Talf.s:110    .text:0000000000000040 .L0 
     /tmp/ccg3Talf.s:113    .text:0000000000000044 .L0 
     /tmp/ccg3Talf.s:115    .text:0000000000000048 .L0 
     /tmp/ccg3Talf.s:123    .text:0000000000000050 .L0 
     /tmp/ccg3Talf.s:124    .text:0000000000000050 .L0 
     /tmp/ccg3Talf.s:132    .text:000000000000005c .L0 
     /tmp/ccg3Talf.s:133    .text:0000000000000060 .L0 
     /tmp/ccg3Talf.s:135    .text:0000000000000064 .L0 
     /tmp/ccg3Talf.s:136    .text:0000000000000064 .L0 
     /tmp/ccg3Talf.s:138    .text:0000000000000068 .L0 
     /tmp/ccg3Talf.s:140    .text:000000000000006c .L0 
GAS LISTING /tmp/ccg3Talf.s 			page 18


     /tmp/ccg3Talf.s:142    .text:0000000000000070 .L0 
     /tmp/ccg3Talf.s:78     .text:0000000000000018 _ZN6ThreadD1Ev
     /tmp/ccg3Talf.s:158    .text:0000000000000070 _ZN6ThreadD0Ev
     /tmp/ccg3Talf.s:161    .text:0000000000000070 .L0 
     /tmp/ccg3Talf.s:163    .text:0000000000000070 .L0 
     /tmp/ccg3Talf.s:164    .text:0000000000000074 .L0 
     /tmp/ccg3Talf.s:168    .text:0000000000000080 .L0 
     /tmp/ccg3Talf.s:169    .text:0000000000000080 .L0 
     /tmp/ccg3Talf.s:170    .text:0000000000000080 .L0 
     /tmp/ccg3Talf.s:172    .text:0000000000000084 .L0 
     /tmp/ccg3Talf.s:175    .text:0000000000000088 .L0 
     /tmp/ccg3Talf.s:181    .text:00000000000000a0 .L0 
     /tmp/ccg3Talf.s:183    .text:00000000000000a4 .L0 
     /tmp/ccg3Talf.s:184    .text:00000000000000a4 .L0 
     /tmp/ccg3Talf.s:186    .text:00000000000000a8 .L0 
     /tmp/ccg3Talf.s:189    .text:00000000000000ac .L0 
     /tmp/ccg3Talf.s:191    .text:00000000000000b0 .L0 
     /tmp/ccg3Talf.s:197    .text:00000000000000b0 _ZN9SemaphoreD2Ev
     /tmp/ccg3Talf.s:200    .text:00000000000000b0 .L0 
     /tmp/ccg3Talf.s:204    .text:00000000000000b0 .L0 
     /tmp/ccg3Talf.s:205    .text:00000000000000b4 .L0 
     /tmp/ccg3Talf.s:208    .text:00000000000000bc .L0 
     /tmp/ccg3Talf.s:209    .text:00000000000000bc .L0 
     /tmp/ccg3Talf.s:211    .text:00000000000000c0 .L0 
     /tmp/ccg3Talf.s:683    .data.rel.ro.local._ZTV9Semaphore:0000000000000000 _ZTV9Semaphore
     /tmp/ccg3Talf.s:214    .text:00000000000000c0 .L0 
     /tmp/ccg3Talf.s:217    .text:00000000000000cc .L0 
     /tmp/ccg3Talf.s:218    .text:00000000000000cc .L0 
     /tmp/ccg3Talf.s:224    .text:00000000000000d8 .L0 
     /tmp/ccg3Talf.s:225    .text:00000000000000dc .L0 
     /tmp/ccg3Talf.s:227    .text:00000000000000e0 .L0 
     /tmp/ccg3Talf.s:228    .text:00000000000000e0 .L0 
     /tmp/ccg3Talf.s:230    .text:00000000000000e4 .L0 
     /tmp/ccg3Talf.s:232    .text:00000000000000e8 .L0 
     /tmp/ccg3Talf.s:197    .text:00000000000000b0 _ZN9SemaphoreD1Ev
     /tmp/ccg3Talf.s:247    .text:00000000000000e8 _ZN9SemaphoreD0Ev
     /tmp/ccg3Talf.s:250    .text:00000000000000e8 .L0 
     /tmp/ccg3Talf.s:252    .text:00000000000000e8 .L0 
     /tmp/ccg3Talf.s:253    .text:00000000000000ec .L0 
     /tmp/ccg3Talf.s:257    .text:00000000000000f8 .L0 
     /tmp/ccg3Talf.s:258    .text:00000000000000f8 .L0 
     /tmp/ccg3Talf.s:259    .text:00000000000000f8 .L0 
     /tmp/ccg3Talf.s:261    .text:00000000000000fc .L0 
     /tmp/ccg3Talf.s:264    .text:0000000000000100 .L0 
     /tmp/ccg3Talf.s:270    .text:0000000000000118 .L0 
     /tmp/ccg3Talf.s:272    .text:000000000000011c .L0 
     /tmp/ccg3Talf.s:273    .text:000000000000011c .L0 
     /tmp/ccg3Talf.s:275    .text:0000000000000120 .L0 
     /tmp/ccg3Talf.s:278    .text:0000000000000124 .L0 
     /tmp/ccg3Talf.s:280    .text:0000000000000128 .L0 
     /tmp/ccg3Talf.s:286    .text:0000000000000128 _ZN6Thread8dispatchEv
     /tmp/ccg3Talf.s:289    .text:0000000000000128 .L0 
     /tmp/ccg3Talf.s:290    .text:0000000000000128 .L0 
     /tmp/ccg3Talf.s:291    .text:000000000000012c .L0 
     /tmp/ccg3Talf.s:294    .text:0000000000000134 .L0 
     /tmp/ccg3Talf.s:295    .text:0000000000000134 .L0 
     /tmp/ccg3Talf.s:297    .text:0000000000000138 .L0 
GAS LISTING /tmp/ccg3Talf.s 			page 19


     /tmp/ccg3Talf.s:299    .text:0000000000000138 .L0 
     /tmp/ccg3Talf.s:300    .text:0000000000000138 .L0 
     /tmp/ccg3Talf.s:303    .text:0000000000000140 .L0 
     /tmp/ccg3Talf.s:304    .text:0000000000000144 .L0 
     /tmp/ccg3Talf.s:306    .text:0000000000000148 .L0 
     /tmp/ccg3Talf.s:307    .text:0000000000000148 .L0 
     /tmp/ccg3Talf.s:309    .text:000000000000014c .L0 
     /tmp/ccg3Talf.s:311    .text:0000000000000150 .L0 
     /tmp/ccg3Talf.s:317    .text:0000000000000150 _ZN6ThreadC2EPFvPvES0_
     /tmp/ccg3Talf.s:320    .text:0000000000000150 .L0 
     /tmp/ccg3Talf.s:322    .text:0000000000000150 .L0 
     /tmp/ccg3Talf.s:323    .text:0000000000000154 .L0 
     /tmp/ccg3Talf.s:326    .text:000000000000015c .L0 
     /tmp/ccg3Talf.s:327    .text:000000000000015c .L0 
     /tmp/ccg3Talf.s:329    .text:0000000000000160 .L0 
     /tmp/ccg3Talf.s:332    .text:0000000000000160 .L0 
     /tmp/ccg3Talf.s:335    .text:000000000000016c .L0 
     /tmp/ccg3Talf.s:336    .text:000000000000016c .L0 
     /tmp/ccg3Talf.s:342    .text:0000000000000178 .L0 
     /tmp/ccg3Talf.s:343    .text:000000000000017c .L0 
     /tmp/ccg3Talf.s:345    .text:0000000000000180 .L0 
     /tmp/ccg3Talf.s:346    .text:0000000000000180 .L0 
     /tmp/ccg3Talf.s:348    .text:0000000000000184 .L0 
     /tmp/ccg3Talf.s:350    .text:0000000000000188 .L0 
     /tmp/ccg3Talf.s:317    .text:0000000000000150 _ZN6ThreadC1EPFvPvES0_
     /tmp/ccg3Talf.s:358    .text:0000000000000188 _ZN6Thread4joinEv
     /tmp/ccg3Talf.s:361    .text:0000000000000188 .L0 
     /tmp/ccg3Talf.s:363    .text:0000000000000188 .L0 
     /tmp/ccg3Talf.s:364    .text:000000000000018c .L0 
     /tmp/ccg3Talf.s:367    .text:0000000000000194 .L0 
     /tmp/ccg3Talf.s:368    .text:0000000000000194 .L0 
     /tmp/ccg3Talf.s:370    .text:0000000000000198 .L0 
     /tmp/ccg3Talf.s:372    .text:0000000000000198 .L0 
     /tmp/ccg3Talf.s:373    .text:0000000000000198 .L0 
     /tmp/ccg3Talf.s:378    .text:00000000000001a4 .L0 
     /tmp/ccg3Talf.s:379    .text:00000000000001a8 .L0 
     /tmp/ccg3Talf.s:381    .text:00000000000001ac .L0 
     /tmp/ccg3Talf.s:382    .text:00000000000001ac .L0 
     /tmp/ccg3Talf.s:384    .text:00000000000001b0 .L0 
     /tmp/ccg3Talf.s:386    .text:00000000000001b4 .L0 
     /tmp/ccg3Talf.s:392    .text:00000000000001b4 _ZN6Thread5startEv
     /tmp/ccg3Talf.s:395    .text:00000000000001b4 .L0 
     /tmp/ccg3Talf.s:397    .text:00000000000001b4 .L0 
     /tmp/ccg3Talf.s:398    .text:00000000000001b8 .L0 
     /tmp/ccg3Talf.s:401    .text:00000000000001c0 .L0 
     /tmp/ccg3Talf.s:402    .text:00000000000001c0 .L0 
     /tmp/ccg3Talf.s:404    .text:00000000000001c4 .L0 
     /tmp/ccg3Talf.s:406    .text:00000000000001c4 .L0 
     /tmp/ccg3Talf.s:407    .text:00000000000001c4 .L0 
     /tmp/ccg3Talf.s:412    .text:00000000000001d0 .L0 
     /tmp/ccg3Talf.s:413    .text:00000000000001d0 .L0 
     /tmp/ccg3Talf.s:415    .text:00000000000001d8 .L0 
     /tmp/ccg3Talf.s:417    .text:00000000000001dc .L0 
     /tmp/ccg3Talf.s:418    .text:00000000000001dc .L0 
     /tmp/ccg3Talf.s:420    .text:00000000000001e0 .L0 
     /tmp/ccg3Talf.s:422    .text:00000000000001e4 .L0 
     /tmp/ccg3Talf.s:428    .text:00000000000001e4 _ZN6ThreadC2Ev
GAS LISTING /tmp/ccg3Talf.s 			page 20


     /tmp/ccg3Talf.s:431    .text:00000000000001e4 .L0 
     /tmp/ccg3Talf.s:433    .text:00000000000001e4 .L0 
     /tmp/ccg3Talf.s:434    .text:00000000000001e8 .L0 
     /tmp/ccg3Talf.s:437    .text:00000000000001f0 .L0 
     /tmp/ccg3Talf.s:438    .text:00000000000001f0 .L0 
     /tmp/ccg3Talf.s:440    .text:00000000000001f4 .L0 
     /tmp/ccg3Talf.s:443    .text:00000000000001f4 .L0 
     /tmp/ccg3Talf.s:446    .text:0000000000000200 .L0 
     /tmp/ccg3Talf.s:447    .text:0000000000000200 .L0 
     /tmp/ccg3Talf.s:455    .text:0000000000000218 .L0 
     /tmp/ccg3Talf.s:456    .text:000000000000021c .L0 
     /tmp/ccg3Talf.s:458    .text:0000000000000220 .L0 
     /tmp/ccg3Talf.s:459    .text:0000000000000220 .L0 
     /tmp/ccg3Talf.s:461    .text:0000000000000224 .L0 
     /tmp/ccg3Talf.s:463    .text:0000000000000228 .L0 
     /tmp/ccg3Talf.s:428    .text:00000000000001e4 _ZN6ThreadC1Ev
     /tmp/ccg3Talf.s:471    .text:0000000000000228 _ZN6Thread5sleepEm
     /tmp/ccg3Talf.s:474    .text:0000000000000228 .L0 
     /tmp/ccg3Talf.s:476    .text:0000000000000228 .L0 
     /tmp/ccg3Talf.s:477    .text:000000000000022c .L0 
     /tmp/ccg3Talf.s:479    .text:0000000000000230 .L0 
     /tmp/ccg3Talf.s:481    .text:0000000000000234 .L0 
     /tmp/ccg3Talf.s:483    .text:0000000000000234 .L0 
     /tmp/ccg3Talf.s:484    .text:0000000000000234 .L0 
     /tmp/ccg3Talf.s:487    .text:000000000000023c .L0 
     /tmp/ccg3Talf.s:488    .text:000000000000023c .L0 
     /tmp/ccg3Talf.s:490    .text:0000000000000240 .L0 
     /tmp/ccg3Talf.s:492    .text:0000000000000244 .L0 
     /tmp/ccg3Talf.s:498    .text:0000000000000244 _ZN9SemaphoreC2Ej
     /tmp/ccg3Talf.s:501    .text:0000000000000244 .L0 
     /tmp/ccg3Talf.s:503    .text:0000000000000244 .L0 
     /tmp/ccg3Talf.s:504    .text:0000000000000248 .L0 
     /tmp/ccg3Talf.s:507    .text:0000000000000250 .L0 
     /tmp/ccg3Talf.s:508    .text:0000000000000250 .L0 
     /tmp/ccg3Talf.s:510    .text:0000000000000254 .L0 
     /tmp/ccg3Talf.s:513    .text:0000000000000254 .L0 
     /tmp/ccg3Talf.s:516    .text:0000000000000260 .L0 
     /tmp/ccg3Talf.s:517    .text:0000000000000260 .L0 
     /tmp/ccg3Talf.s:523    .text:000000000000026c .L0 
     /tmp/ccg3Talf.s:524    .text:0000000000000270 .L0 
     /tmp/ccg3Talf.s:526    .text:0000000000000274 .L0 
     /tmp/ccg3Talf.s:527    .text:0000000000000274 .L0 
     /tmp/ccg3Talf.s:529    .text:0000000000000278 .L0 
     /tmp/ccg3Talf.s:531    .text:000000000000027c .L0 
     /tmp/ccg3Talf.s:498    .text:0000000000000244 _ZN9SemaphoreC1Ej
     /tmp/ccg3Talf.s:539    .text:000000000000027c _ZN9Semaphore4waitEv
     /tmp/ccg3Talf.s:542    .text:000000000000027c .L0 
     /tmp/ccg3Talf.s:544    .text:000000000000027c .L0 
     /tmp/ccg3Talf.s:545    .text:0000000000000280 .L0 
     /tmp/ccg3Talf.s:548    .text:0000000000000288 .L0 
     /tmp/ccg3Talf.s:549    .text:0000000000000288 .L0 
     /tmp/ccg3Talf.s:551    .text:000000000000028c .L0 
     /tmp/ccg3Talf.s:553    .text:000000000000028c .L0 
     /tmp/ccg3Talf.s:554    .text:000000000000028c .L0 
     /tmp/ccg3Talf.s:559    .text:0000000000000298 .L0 
     /tmp/ccg3Talf.s:560    .text:000000000000029c .L0 
     /tmp/ccg3Talf.s:562    .text:00000000000002a0 .L0 
GAS LISTING /tmp/ccg3Talf.s 			page 21


     /tmp/ccg3Talf.s:563    .text:00000000000002a0 .L0 
     /tmp/ccg3Talf.s:565    .text:00000000000002a4 .L0 
     /tmp/ccg3Talf.s:567    .text:00000000000002a8 .L0 
     /tmp/ccg3Talf.s:573    .text:00000000000002a8 _ZN9Semaphore6signalEv
     /tmp/ccg3Talf.s:576    .text:00000000000002a8 .L0 
     /tmp/ccg3Talf.s:578    .text:00000000000002a8 .L0 
     /tmp/ccg3Talf.s:579    .text:00000000000002ac .L0 
     /tmp/ccg3Talf.s:582    .text:00000000000002b4 .L0 
     /tmp/ccg3Talf.s:583    .text:00000000000002b4 .L0 
     /tmp/ccg3Talf.s:585    .text:00000000000002b8 .L0 
     /tmp/ccg3Talf.s:587    .text:00000000000002b8 .L0 
     /tmp/ccg3Talf.s:588    .text:00000000000002b8 .L0 
     /tmp/ccg3Talf.s:593    .text:00000000000002c4 .L0 
     /tmp/ccg3Talf.s:594    .text:00000000000002c8 .L0 
     /tmp/ccg3Talf.s:596    .text:00000000000002cc .L0 
     /tmp/ccg3Talf.s:597    .text:00000000000002cc .L0 
     /tmp/ccg3Talf.s:599    .text:00000000000002d0 .L0 
     /tmp/ccg3Talf.s:601    .text:00000000000002d4 .L0 
     /tmp/ccg3Talf.s:607    .text:00000000000002d4 _ZN7Console4putcEc
     /tmp/ccg3Talf.s:610    .text:00000000000002d4 .L0 
     /tmp/ccg3Talf.s:612    .text:00000000000002d4 .L0 
     /tmp/ccg3Talf.s:613    .text:00000000000002d8 .L0 
     /tmp/ccg3Talf.s:616    .text:00000000000002e0 .L0 
     /tmp/ccg3Talf.s:617    .text:00000000000002e0 .L0 
     /tmp/ccg3Talf.s:619    .text:00000000000002e4 .L0 
     /tmp/ccg3Talf.s:621    .text:00000000000002e4 .L0 
     /tmp/ccg3Talf.s:622    .text:00000000000002e4 .L0 
     /tmp/ccg3Talf.s:625    .text:00000000000002ec .L0 
     /tmp/ccg3Talf.s:626    .text:00000000000002f0 .L0 
     /tmp/ccg3Talf.s:628    .text:00000000000002f4 .L0 
     /tmp/ccg3Talf.s:629    .text:00000000000002f4 .L0 
     /tmp/ccg3Talf.s:631    .text:00000000000002f8 .L0 
     /tmp/ccg3Talf.s:633    .text:00000000000002fc .L0 
     /tmp/ccg3Talf.s:639    .text:00000000000002fc _ZN7Console4getcEv
     /tmp/ccg3Talf.s:642    .text:00000000000002fc .L0 
     /tmp/ccg3Talf.s:643    .text:00000000000002fc .L0 
     /tmp/ccg3Talf.s:644    .text:0000000000000300 .L0 
     /tmp/ccg3Talf.s:647    .text:0000000000000308 .L0 
     /tmp/ccg3Talf.s:648    .text:0000000000000308 .L0 
     /tmp/ccg3Talf.s:650    .text:000000000000030c .L0 
     /tmp/ccg3Talf.s:652    .text:000000000000030c .L0 
     /tmp/ccg3Talf.s:653    .text:000000000000030c .L0 
     /tmp/ccg3Talf.s:656    .text:0000000000000314 .L0 
     /tmp/ccg3Talf.s:657    .text:0000000000000318 .L0 
     /tmp/ccg3Talf.s:659    .text:000000000000031c .L0 
     /tmp/ccg3Talf.s:660    .text:000000000000031c .L0 
     /tmp/ccg3Talf.s:662    .text:0000000000000320 .L0 
     /tmp/ccg3Talf.s:664    .text:0000000000000324 .L0 
     /tmp/ccg3Talf.s:49     .text._ZN6Thread10runWrapperEPv:0000000000000034 .L0 
     /tmp/ccg3Talf.s:695    .text:0000000000000324 .L0 
     /tmp/ccg3Talf.s:97     .text:000000000000002c .L0 
     /tmp/ccg3Talf.s:214    .text:00000000000000c0 .L0 
     /tmp/ccg3Talf.s:332    .text:0000000000000160 .L0 
     /tmp/ccg3Talf.s:443    .text:00000000000001f4 .L0 
     /tmp/ccg3Talf.s:448    .text:0000000000000204 .L0 
     /tmp/ccg3Talf.s:513    .text:0000000000000254 .L0 
     /tmp/ccg3Talf.s:127    .text:000000000000005c .L9
GAS LISTING /tmp/ccg3Talf.s 			page 22


     /tmp/ccg3Talf.s:117    .text:0000000000000050 .L11
     /tmp/ccg3Talf.s:44     .text._ZN6Thread10runWrapperEPv:0000000000000030 .L4
     /tmp/ccg3Talf.s:2656   .debug_abbrev:0000000000000000 .Ldebug_abbrev0
     /tmp/ccg3Talf.s:4535   .debug_str:00000000000009c6 .LASF192
     /tmp/ccg3Talf.s:4345   .debug_str:0000000000000481 .LASF193
     /tmp/ccg3Talf.s:4549   .debug_str:0000000000000ae6 .LASF194
     /tmp/ccg3Talf.s:4193   .debug_ranges:0000000000000000 .Ldebug_ranges0
     /tmp/ccg3Talf.s:4201   .debug_line:0000000000000000 .Ldebug_line0
     /tmp/ccg3Talf.s:4335   .debug_str:0000000000000445 .LASF0
     /tmp/ccg3Talf.s:4361   .debug_str:000000000000050d .LASF1
     /tmp/ccg3Talf.s:4463   .debug_str:00000000000007ee .LASF2
     /tmp/ccg3Talf.s:4471   .debug_str:000000000000081e .LASF4
     /tmp/ccg3Talf.s:4347   .debug_str:0000000000000495 .LASF3
     /tmp/ccg3Talf.s:4219   .debug_str:0000000000000080 .LASF5
     /tmp/ccg3Talf.s:4437   .debug_str:000000000000073b .LASF6
     /tmp/ccg3Talf.s:4429   .debug_str:0000000000000704 .LASF7
     /tmp/ccg3Talf.s:4353   .debug_str:00000000000004e0 .LASF8
     /tmp/ccg3Talf.s:4311   .debug_str:000000000000037d .LASF9
     /tmp/ccg3Talf.s:4321   .debug_str:00000000000003d8 .LASF10
     /tmp/ccg3Talf.s:4257   .debug_str:00000000000001cb .LASF11
     /tmp/ccg3Talf.s:4301   .debug_str:0000000000000341 .LASF12
     /tmp/ccg3Talf.s:4273   .debug_str:0000000000000249 .LASF13
     /tmp/ccg3Talf.s:4255   .debug_str:00000000000001bb .LASF14
     /tmp/ccg3Talf.s:4509   .debug_str:0000000000000939 .LASF15
     /tmp/ccg3Talf.s:4287   .debug_str:00000000000002a4 .LASF16
     /tmp/ccg3Talf.s:4495   .debug_str:00000000000008de .LASF17
     /tmp/ccg3Talf.s:4595   .debug_str:0000000000000c55 .LASF52
     /tmp/ccg3Talf.s:4259   .debug_str:00000000000001da .LASF18
     /tmp/ccg3Talf.s:4233   .debug_str:00000000000000f6 .LASF19
     /tmp/ccg3Talf.s:4359   .debug_str:0000000000000508 .LASF20
     /tmp/ccg3Talf.s:4425   .debug_str:00000000000006e8 .LASF27
     /tmp/ccg3Talf.s:4391   .debug_str:00000000000005da .LASF21
     /tmp/ccg3Talf.s:4223   .debug_str:000000000000009e .LASF23
     /tmp/ccg3Talf.s:4517   .debug_str:000000000000095e .LASF22
     /tmp/ccg3Talf.s:4393   .debug_str:00000000000005e4 .LASF24
     /tmp/ccg3Talf.s:4349   .debug_str:00000000000004a7 .LASF35
     /tmp/ccg3Talf.s:4467   .debug_str:0000000000000809 .LASF37
     /tmp/ccg3Talf.s:4565   .debug_str:0000000000000b70 .LASF38
     /tmp/ccg3Talf.s:4505   .debug_str:0000000000000923 .LASF25
     /tmp/ccg3Talf.s:4585   .debug_str:0000000000000c05 .LASF96
     /tmp/ccg3Talf.s:4237   .debug_str:0000000000000106 .LASF98
     /tmp/ccg3Talf.s:4481   .debug_str:000000000000085f .LASF26
     /tmp/ccg3Talf.s:4229   .debug_str:00000000000000d7 .LASF28
     /tmp/ccg3Talf.s:4401   .debug_str:000000000000064b .LASF68
     /tmp/ccg3Talf.s:4593   .debug_str:0000000000000c3c .LASF70
     /tmp/ccg3Talf.s:4379   .debug_str:000000000000059a .LASF29
     /tmp/ccg3Talf.s:4573   .debug_str:0000000000000ba5 .LASF30
     /tmp/ccg3Talf.s:4559   .debug_str:0000000000000b4e .LASF195
     /tmp/ccg3Talf.s:4501   .debug_str:000000000000090d .LASF31
     /tmp/ccg3Talf.s:4405   .debug_str:0000000000000673 .LASF32
     /tmp/ccg3Talf.s:4397   .debug_str:0000000000000637 .LASF33
     /tmp/ccg3Talf.s:4497   .debug_str:00000000000008f4 .LASF34
     /tmp/ccg3Talf.s:4299   .debug_str:000000000000032a .LASF36
     /tmp/ccg3Talf.s:4455   .debug_str:00000000000007ae .LASF39
     /tmp/ccg3Talf.s:4355   .debug_str:00000000000004f3 .LASF40
     /tmp/ccg3Talf.s:4247   .debug_str:000000000000016e .LASF41
     /tmp/ccg3Talf.s:4375   .debug_str:000000000000057c .LASF42
GAS LISTING /tmp/ccg3Talf.s 			page 23


     /tmp/ccg3Talf.s:4289   .debug_str:00000000000002ba .LASF43
     /tmp/ccg3Talf.s:4427   .debug_str:00000000000006f8 .LASF44
     /tmp/ccg3Talf.s:4575   .debug_str:0000000000000baf .LASF45
     /tmp/ccg3Talf.s:4615   .debug_str:0000000000000cd6 .LASF46
     /tmp/ccg3Talf.s:4599   .debug_str:0000000000000c63 .LASF47
     /tmp/ccg3Talf.s:4485   .debug_str:0000000000000896 .LASF48
     /tmp/ccg3Talf.s:4351   .debug_str:00000000000004c3 .LASF49
     /tmp/ccg3Talf.s:4449   .debug_str:000000000000078c .LASF50
     /tmp/ccg3Talf.s:4211   .debug_str:0000000000000028 .LASF51
     /tmp/ccg3Talf.s:4265   .debug_str:0000000000000206 .LASF53
     /tmp/ccg3Talf.s:4473   .debug_str:0000000000000825 .LASF54
     /tmp/ccg3Talf.s:4215   .debug_str:000000000000006a .LASF55
     /tmp/ccg3Talf.s:4519   .debug_str:0000000000000967 .LASF56
     /tmp/ccg3Talf.s:4403   .debug_str:000000000000065c .LASF57
     /tmp/ccg3Talf.s:4241   .debug_str:0000000000000138 .LASF58
     /tmp/ccg3Talf.s:4555   .debug_str:0000000000000b28 .LASF59
     /tmp/ccg3Talf.s:4583   .debug_str:0000000000000bfb .LASF60
     /tmp/ccg3Talf.s:4251   .debug_str:0000000000000197 .LASF61
     /tmp/ccg3Talf.s:4521   .debug_str:0000000000000972 .LASF62
     /tmp/ccg3Talf.s:4271   .debug_str:0000000000000233 .LASF63
     /tmp/ccg3Talf.s:4277   .debug_str:0000000000000267 .LASF64
     /tmp/ccg3Talf.s:4581   .debug_str:0000000000000be9 .LASF65
     /tmp/ccg3Talf.s:4611   .debug_str:0000000000000cc5 .LASF66
     /tmp/ccg3Talf.s:4591   .debug_str:0000000000000c29 .LASF67
     /tmp/ccg3Talf.s:4317   .debug_str:00000000000003ba .LASF69
     /tmp/ccg3Talf.s:4291   .debug_str:00000000000002d6 .LASF71
     /tmp/ccg3Talf.s:4507   .debug_str:000000000000092c .LASF72
     /tmp/ccg3Talf.s:4325   .debug_str:00000000000003f8 .LASF73
     /tmp/ccg3Talf.s:4421   .debug_str:00000000000006cd .LASF196
     /tmp/ccg3Talf.s:4487   .debug_str:00000000000008a1 .LASF74
     /tmp/ccg3Talf.s:4395   .debug_str:0000000000000605 .LASF75
     /tmp/ccg3Talf.s:4529   .debug_str:0000000000000999 .LASF76
     /tmp/ccg3Talf.s:4531   .debug_str:00000000000009a5 .LASF77
     /tmp/ccg3Talf.s:4363   .debug_str:0000000000000520 .LASF152
     /tmp/ccg3Talf.s:4541   .debug_str:0000000000000aaf .LASF153
     /tmp/ccg3Talf.s:4533   .debug_str:00000000000009be .LASF78
     /tmp/ccg3Talf.s:4607   .debug_str:0000000000000caa .LASF79
     /tmp/ccg3Talf.s:4319   .debug_str:00000000000003cc .LASF80
     /tmp/ccg3Talf.s:4387   .debug_str:00000000000005c5 .LASF81
     /tmp/ccg3Talf.s:4309   .debug_str:0000000000000371 .LASF82
     /tmp/ccg3Talf.s:4207   .debug_str:0000000000000010 .LASF83
     /tmp/ccg3Talf.s:4415   .debug_str:00000000000006a4 .LASF84
     /tmp/ccg3Talf.s:4493   .debug_str:00000000000008cb .LASF85
     /tmp/ccg3Talf.s:4465   .debug_str:00000000000007fc .LASF86
     /tmp/ccg3Talf.s:4439   .debug_str:0000000000000742 .LASF197
     /tmp/ccg3Talf.s:4205   .debug_str:000000000000000b .LASF87
     /tmp/ccg3Talf.s:4489   .debug_str:00000000000008bd .LASF88
     /tmp/ccg3Talf.s:4553   .debug_str:0000000000000b20 .LASF89
     /tmp/ccg3Talf.s:4515   .debug_str:0000000000000955 .LASF90
     /tmp/ccg3Talf.s:4417   .debug_str:00000000000006b1 .LASF91
     /tmp/ccg3Talf.s:4605   .debug_str:0000000000000ca5 .LASF92
     /tmp/ccg3Talf.s:4545   .debug_str:0000000000000ad6 .LASF93
     /tmp/ccg3Talf.s:4367   .debug_str:0000000000000539 .LASF94
     /tmp/ccg3Talf.s:4329   .debug_str:0000000000000422 .LASF95
     /tmp/ccg3Talf.s:4245   .debug_str:0000000000000160 .LASF100
     /tmp/ccg3Talf.s:4369   .debug_str:000000000000053e .LASF102
     /tmp/ccg3Talf.s:4275   .debug_str:0000000000000259 .LASF97
GAS LISTING /tmp/ccg3Talf.s 			page 24


     /tmp/ccg3Talf.s:4213   .debug_str:0000000000000042 .LASF99
     /tmp/ccg3Talf.s:4279   .debug_str:000000000000026e .LASF101
     /tmp/ccg3Talf.s:4267   .debug_str:000000000000020e .LASF103
     /tmp/ccg3Talf.s:4527   .debug_str:0000000000000994 .LASF104
     /tmp/ccg3Talf.s:4303   .debug_str:0000000000000350 .LASF105
     /tmp/ccg3Talf.s:4235   .debug_str:00000000000000fb .LASF106
     /tmp/ccg3Talf.s:4373   .debug_str:0000000000000566 .LASF107
     /tmp/ccg3Talf.s:4469   .debug_str:0000000000000813 .LASF198
     /tmp/ccg3Talf.s:4249   .debug_str:000000000000018b .LASF199
     /tmp/ccg3Talf.s:4281   .debug_str:0000000000000277 .LASF108
     /tmp/ccg3Talf.s:4399   .debug_str:000000000000063c .LASF109
     /tmp/ccg3Talf.s:4513   .debug_str:000000000000094e .LASF110
     /tmp/ccg3Talf.s:4503   .debug_str:0000000000000912 .LASF111
     /tmp/ccg3Talf.s:4411   .debug_str:0000000000000698 .LASF112
     /tmp/ccg3Talf.s:4557   .debug_str:0000000000000b3f .LASF113
     /tmp/ccg3Talf.s:4227   .debug_str:00000000000000d1 .LASF114
     /tmp/ccg3Talf.s:4477   .debug_str:000000000000083d .LASF115
     /tmp/ccg3Talf.s:4313   .debug_str:000000000000038d .LASF116
     /tmp/ccg3Talf.s:4409   .debug_str:000000000000068c .LASF117
     /tmp/ccg3Talf.s:4381   .debug_str:000000000000059f .LASF118
     /tmp/ccg3Talf.s:4295   .debug_str:000000000000030d .LASF119
     /tmp/ccg3Talf.s:4547   .debug_str:0000000000000add .LASF120
     /tmp/ccg3Talf.s:4407   .debug_str:0000000000000678 .LASF121
     /tmp/ccg3Talf.s:4333   .debug_str:000000000000043f .LASF122
     /tmp/ccg3Talf.s:4297   .debug_str:000000000000031a .LASF123
     /tmp/ccg3Talf.s:4209   .debug_str:0000000000000020 .LASF124
     /tmp/ccg3Talf.s:4537   .debug_str:0000000000000a8a .LASF125
     /tmp/ccg3Talf.s:4499   .debug_str:0000000000000907 .LASF126
     /tmp/ccg3Talf.s:4577   .debug_str:0000000000000bcd .LASF127
     /tmp/ccg3Talf.s:4571   .debug_str:0000000000000b9c .LASF128
     /tmp/ccg3Talf.s:4589   .debug_str:0000000000000c23 .LASF129
     /tmp/ccg3Talf.s:4383   .debug_str:00000000000005ac .LASF130
     /tmp/ccg3Talf.s:4389   .debug_str:00000000000005d5 .LASF131
     /tmp/ccg3Talf.s:4283   .debug_str:000000000000027c .LASF132
     /tmp/ccg3Talf.s:4339   .debug_str:0000000000000464 .LASF172
     /tmp/ccg3Talf.s:4475   .debug_str:000000000000082a .LASF200
     /tmp/ccg3Talf.s:4523   .debug_str:000000000000097d .LASF133
     /tmp/ccg3Talf.s:4561   .debug_str:0000000000000b53 .LASF134
     /tmp/ccg3Talf.s:4457   .debug_str:00000000000007c5 .LASF142
     /tmp/ccg3Talf.s:4601   .debug_str:0000000000000c7e .LASF144
     /tmp/ccg3Talf.s:4525   .debug_str:0000000000000982 .LASF135
     /tmp/ccg3Talf.s:4445   .debug_str:0000000000000777 .LASF136
     /tmp/ccg3Talf.s:4479   .debug_str:000000000000084d .LASF137
     /tmp/ccg3Talf.s:4263   .debug_str:00000000000001f1 .LASF138
     /tmp/ccg3Talf.s:4221   .debug_str:0000000000000087 .LASF139
     /tmp/ccg3Talf.s:4341   .debug_str:0000000000000469 .LASF140
     /tmp/ccg3Talf.s:4331   .debug_str:000000000000042f .LASF201
     /tmp/ccg3Talf.s:4327   .debug_str:000000000000041b .LASF141
     /tmp/ccg3Talf.s:4269   .debug_str:0000000000000221 .LASF143
     /tmp/ccg3Talf.s:4459   .debug_str:00000000000007da .LASF145
     /tmp/ccg3Talf.s:4603   .debug_str:0000000000000c8e .LASF146
     /tmp/ccg3Talf.s:4491   .debug_str:00000000000008c3 .LASF147
     /tmp/ccg3Talf.s:4253   .debug_str:00000000000001ac .LASF148
     /tmp/ccg3Talf.s:4597   .debug_str:0000000000000c5d .LASF149
     /tmp/ccg3Talf.s:4365   .debug_str:0000000000000526 .LASF150
     /tmp/ccg3Talf.s:4323   .debug_str:00000000000003e6 .LASF151
     /tmp/ccg3Talf.s:4423   .debug_str:00000000000006d2 .LASF154
GAS LISTING /tmp/ccg3Talf.s 			page 25


     /tmp/ccg3Talf.s:4231   .debug_str:00000000000000f0 .LASF155
     /tmp/ccg3Talf.s:4539   .debug_str:0000000000000a9c .LASF156
     /tmp/ccg3Talf.s:4343   .debug_str:0000000000000472 .LASF157
     /tmp/ccg3Talf.s:4587   .debug_str:0000000000000c12 .LASF202
     /tmp/ccg3Talf.s:4307   .debug_str:0000000000000366 .LASF203
     /tmp/ccg3Talf.s:4293   .debug_str:00000000000002f3 .LASF204
     /tmp/ccg3Talf.s:640    .text:00000000000002fc .LFB64
     /tmp/ccg3Talf.s:665    .text:0000000000000324 .LFE64
     /tmp/ccg3Talf.s:654    .text:0000000000000314 .LVL46
     /tmp/ccg3Talf.s:608    .text:00000000000002d4 .LFB63
     /tmp/ccg3Talf.s:634    .text:00000000000002fc .LFE63
     /tmp/ccg3Talf.s:3898   .debug_loc:0000000000000000 .LLST18
     /tmp/ccg3Talf.s:623    .text:00000000000002ec .LVL45
     /tmp/ccg3Talf.s:574    .text:00000000000002a8 .LFB62
     /tmp/ccg3Talf.s:602    .text:00000000000002d4 .LFE62
     /tmp/ccg3Talf.s:4305   .debug_str:0000000000000361 .LASF158
     /tmp/ccg3Talf.s:3912   .debug_loc:0000000000000039 .LLST17
     /tmp/ccg3Talf.s:591    .text:00000000000002c4 .LVL43
     /tmp/ccg3Talf.s:540    .text:000000000000027c .LFB61
     /tmp/ccg3Talf.s:568    .text:00000000000002a8 .LFE61
     /tmp/ccg3Talf.s:3926   .debug_loc:0000000000000072 .LLST16
     /tmp/ccg3Talf.s:557    .text:0000000000000298 .LVL40
     /tmp/ccg3Talf.s:4217   .debug_str:0000000000000076 .LASF159
     /tmp/ccg3Talf.s:4337   .debug_str:0000000000000452 .LASF160
     /tmp/ccg3Talf.s:248    .text:00000000000000e8 .LFB60
     /tmp/ccg3Talf.s:281    .text:0000000000000128 .LFE60
     /tmp/ccg3Talf.s:3940   .debug_loc:00000000000000ab .LLST6
     /tmp/ccg3Talf.s:265    .text:0000000000000108 .LVL17
     /tmp/ccg3Talf.s:268    .text:0000000000000114 .LVL18
     /tmp/ccg3Talf.s:4225   .debug_str:00000000000000bf .LASF161
     /tmp/ccg3Talf.s:198    .text:00000000000000b0 .LFB58
     /tmp/ccg3Talf.s:233    .text:00000000000000e8 .LFE58
     /tmp/ccg3Talf.s:3958   .debug_loc:00000000000000f7 .LLST5
     /tmp/ccg3Talf.s:221    .text:00000000000000d8 .LVL15
     /tmp/ccg3Talf.s:4239   .debug_str:0000000000000133 .LASF167
     /tmp/ccg3Talf.s:4261   .debug_str:00000000000001df .LASF162
     /tmp/ccg3Talf.s:499    .text:0000000000000244 .LFB55
     /tmp/ccg3Talf.s:532    .text:000000000000027c .LFE55
     /tmp/ccg3Talf.s:3972   .debug_loc:0000000000000130 .LLST14
     /tmp/ccg3Talf.s:3992   .debug_loc:000000000000017e .LLST15
     /tmp/ccg3Talf.s:520    .text:000000000000026c .LVL37
     /tmp/ccg3Talf.s:472    .text:0000000000000228 .LFB53
     /tmp/ccg3Talf.s:493    .text:0000000000000244 .LFE53
     /tmp/ccg3Talf.s:4433   .debug_str:0000000000000724 .LASF163
     /tmp/ccg3Talf.s:4006   .debug_loc:00000000000001b7 .LLST13
     /tmp/ccg3Talf.s:54     .text:0000000000000000 .LFB52
     /tmp/ccg3Talf.s:73     .text:0000000000000018 .LFE52
     /tmp/ccg3Talf.s:4441   .debug_str:0000000000000759 .LASF164
     /tmp/ccg3Talf.s:429    .text:00000000000001e4 .LFB50
     /tmp/ccg3Talf.s:464    .text:0000000000000228 .LFE50
     /tmp/ccg3Talf.s:4020   .debug_loc:00000000000001f0 .LLST12
     /tmp/ccg3Talf.s:452    .text:0000000000000218 .LVL32
     /tmp/ccg3Talf.s:393    .text:00000000000001b4 .LFB48
     /tmp/ccg3Talf.s:423    .text:00000000000001e4 .LFE48
     /tmp/ccg3Talf.s:4038   .debug_loc:000000000000023c .LLST11
     /tmp/ccg3Talf.s:410    .text:00000000000001d0 .LVL29
     /tmp/ccg3Talf.s:4371   .debug_str:0000000000000557 .LASF165
GAS LISTING /tmp/ccg3Talf.s 			page 26


     /tmp/ccg3Talf.s:159    .text:0000000000000070 .LFB47
     /tmp/ccg3Talf.s:192    .text:00000000000000b0 .LFE47
     /tmp/ccg3Talf.s:4052   .debug_loc:0000000000000275 .LLST4
     /tmp/ccg3Talf.s:176    .text:0000000000000090 .LVL10
     /tmp/ccg3Talf.s:179    .text:000000000000009c .LVL11
     /tmp/ccg3Talf.s:4443   .debug_str:0000000000000768 .LASF166
     /tmp/ccg3Talf.s:79     .text:0000000000000018 .LFB45
     /tmp/ccg3Talf.s:143    .text:0000000000000070 .LFE45
     /tmp/ccg3Talf.s:4070   .debug_loc:00000000000002c1 .LLST1
     /tmp/ccg3Talf.s:105    .text:0000000000000040 .LBB9
     /tmp/ccg3Talf.s:119    .text:0000000000000050 .LBE9
     /tmp/ccg3Talf.s:4084   .debug_loc:00000000000002fa .LLST2
     /tmp/ccg3Talf.s:116    .text:0000000000000050 .LVL7
     /tmp/ccg3Talf.s:120    .text:0000000000000050 .LBB11
     /tmp/ccg3Talf.s:129    .text:000000000000005c .LBE11
     /tmp/ccg3Talf.s:4091   .debug_loc:000000000000031d .LLST3
     /tmp/ccg3Talf.s:126    .text:000000000000005c .LVL8
     /tmp/ccg3Talf.s:359    .text:0000000000000188 .LFB43
     /tmp/ccg3Talf.s:387    .text:00000000000001b4 .LFE43
     /tmp/ccg3Talf.s:4098   .debug_loc:0000000000000340 .LLST10
     /tmp/ccg3Talf.s:376    .text:00000000000001a4 .LVL26
     /tmp/ccg3Talf.s:4543   .debug_str:0000000000000abf .LASF168
     /tmp/ccg3Talf.s:318    .text:0000000000000150 .LFB41
     /tmp/ccg3Talf.s:351    .text:0000000000000188 .LFE41
     /tmp/ccg3Talf.s:4112   .debug_loc:0000000000000379 .LLST7
     /tmp/ccg3Talf.s:4132   .debug_loc:00000000000003c7 .LLST8
     /tmp/ccg3Talf.s:4146   .debug_loc:0000000000000400 .LLST9
     /tmp/ccg3Talf.s:339    .text:0000000000000178 .LVL23
     /tmp/ccg3Talf.s:287    .text:0000000000000128 .LFB39
     /tmp/ccg3Talf.s:312    .text:0000000000000150 .LFE39
     /tmp/ccg3Talf.s:301    .text:0000000000000140 .LVL20
     /tmp/ccg3Talf.s:11     .text._ZN6Thread10runWrapperEPv:0000000000000000 .LFB38
     /tmp/ccg3Talf.s:47     .text._ZN6Thread10runWrapperEPv:0000000000000034 .LFE38
     /tmp/ccg3Talf.s:4461   .debug_str:00000000000007e7 .LASF169
     /tmp/ccg3Talf.s:4160   .debug_loc:0000000000000439 .LLST0
     /tmp/ccg3Talf.s:33     .text._ZN6Thread10runWrapperEPv:0000000000000020 .LVL1
     /tmp/ccg3Talf.s:4357   .debug_str:00000000000004fc .LASF205
     /tmp/ccg3Talf.s:4567   .debug_str:0000000000000b8c .LASF170
     /tmp/ccg3Talf.s:4511   .debug_str:0000000000000945 .LASF171
     /tmp/ccg3Talf.s:4419   .debug_str:00000000000006b9 .LASF173
     /tmp/ccg3Talf.s:4203   .debug_str:0000000000000000 .LASF174
     /tmp/ccg3Talf.s:4385   .debug_str:00000000000005b4 .LASF175
     /tmp/ccg3Talf.s:4613   .debug_str:0000000000000ccd .LASF176
     /tmp/ccg3Talf.s:4569   .debug_str:0000000000000b95 .LASF177
     /tmp/ccg3Talf.s:4435   .debug_str:0000000000000729 .LASF178
     /tmp/ccg3Talf.s:4447   .debug_str:0000000000000782 .LASF179
     /tmp/ccg3Talf.s:4563   .debug_str:0000000000000b5d .LASF180
     /tmp/ccg3Talf.s:4453   .debug_str:00000000000007a5 .LASF181
     /tmp/ccg3Talf.s:4483   .debug_str:0000000000000867 .LASF182
     /tmp/ccg3Talf.s:4243   .debug_str:0000000000000144 .LASF183
     /tmp/ccg3Talf.s:4377   .debug_str:0000000000000584 .LASF184
     /tmp/ccg3Talf.s:4431   .debug_str:0000000000000717 .LASF185
     /tmp/ccg3Talf.s:4413   .debug_str:000000000000069d .LASF206
     /tmp/ccg3Talf.s:4285   .debug_str:000000000000028f .LASF186
     /tmp/ccg3Talf.s:4551   .debug_str:0000000000000b14 .LASF187
     /tmp/ccg3Talf.s:4315   .debug_str:0000000000000399 .LASF188
     /tmp/ccg3Talf.s:4609   .debug_str:0000000000000cb7 .LASF189
GAS LISTING /tmp/ccg3Talf.s 			page 27


     /tmp/ccg3Talf.s:4579   .debug_str:0000000000000bd4 .LASF190
     /tmp/ccg3Talf.s:4451   .debug_str:0000000000000795 .LASF191
     /tmp/ccg3Talf.s:611    .text:00000000000002d4 .LVL44
     /tmp/ccg3Talf.s:577    .text:00000000000002a8 .LVL41
     /tmp/ccg3Talf.s:589    .text:00000000000002bc .LVL42
     /tmp/ccg3Talf.s:543    .text:000000000000027c .LVL38
     /tmp/ccg3Talf.s:555    .text:0000000000000290 .LVL39
     /tmp/ccg3Talf.s:251    .text:00000000000000e8 .LVL16
     /tmp/ccg3Talf.s:276    .text:0000000000000120 .LVL19
     /tmp/ccg3Talf.s:203    .text:00000000000000b0 .LVL13
     /tmp/ccg3Talf.s:219    .text:00000000000000d0 .LVL14
     /tmp/ccg3Talf.s:502    .text:0000000000000244 .LVL35
     /tmp/ccg3Talf.s:518    .text:0000000000000264 .LVL36
     /tmp/ccg3Talf.s:475    .text:0000000000000228 .LVL33
     /tmp/ccg3Talf.s:485    .text:0000000000000238 .LVL34
     /tmp/ccg3Talf.s:432    .text:00000000000001e4 .LVL30
     /tmp/ccg3Talf.s:450    .text:0000000000000210 .LVL31
     /tmp/ccg3Talf.s:396    .text:00000000000001b4 .LVL27
     /tmp/ccg3Talf.s:408    .text:00000000000001c8 .LVL28
     /tmp/ccg3Talf.s:162    .text:0000000000000070 .LVL9
     /tmp/ccg3Talf.s:187    .text:00000000000000a8 .LVL12
     /tmp/ccg3Talf.s:84     .text:0000000000000018 .LVL4
     /tmp/ccg3Talf.s:111    .text:0000000000000044 .LVL6
     /tmp/ccg3Talf.s:104    .text:0000000000000040 .LVL5
     /tmp/ccg3Talf.s:362    .text:0000000000000188 .LVL24
     /tmp/ccg3Talf.s:374    .text:000000000000019c .LVL25
     /tmp/ccg3Talf.s:321    .text:0000000000000150 .LVL21
     /tmp/ccg3Talf.s:337    .text:0000000000000170 .LVL22
     /tmp/ccg3Talf.s:15     .text._ZN6Thread10runWrapperEPv:0000000000000000 .LVL0
     /tmp/ccg3Talf.s:43     .text._ZN6Thread10runWrapperEPv:0000000000000030 .LVL2
     /tmp/ccg3Talf.s:696    .debug_info:0000000000000000 .Ldebug_info0
     /tmp/ccg3Talf.s:5      .text:0000000000000000 .Ltext0
     /tmp/ccg3Talf.s:689    .text:0000000000000324 .Letext0
     /tmp/ccg3Talf.s:146    .gcc_except_table:0000000000000000 .LLSDA45
     /tmp/ccg3Talf.s:235    .gcc_except_table:0000000000000004 .LLSDA58

UNDEFINED SYMBOLS
_ZdaPv
_ZN15MemoryAllocator8mem_freeEPv
__gxx_personality_v0
_ZdlPv
_Z9sem_closeP3Sem
_Z15thread_dispatchv
_Z13thread_createPP3TCBPFvPvES2_
_Z11thread_joinP3TCB
_Z12thread_startP3TCB
_Z27thread_create_without_startPP3TCBPFvPvES2_
_Z8sem_openPP3Semj
_Z8sem_waitP3Sem
_Z10sem_signalP3Sem
_Z4putcc
_Z4getcv
