GAS LISTING /tmp/ccHLVkUp.s 			page 1


   1              		.file	"tcb.cpp"
   2              		.option pic
   3              		.option norelax
   4              		.text
   5              	.Ltext0:
   6              		.align	2
   7              		.globl	_ZN3TCB12createThreadEPFvPvES0_S0_
   9              	_ZN3TCB12createThreadEPFvPvES0_S0_:
  10              	.LFB56:
  11              		.file 1 "src/tcb.cpp"
   1:src/tcb.cpp   **** //
   2:src/tcb.cpp   **** // Created by marko on 20.4.22..
   3:src/tcb.cpp   **** //
   4:src/tcb.cpp   **** 
   5:src/tcb.cpp   **** #include "../h/tcb.hpp"
   6:src/tcb.cpp   **** #include "../h/riscv.hpp"
   7:src/tcb.cpp   **** #include "../test/printing.hpp"
   8:src/tcb.cpp   **** #include "../h/syscall_c.hpp"
   9:src/tcb.cpp   **** 
  10:src/tcb.cpp   **** int TCB::id = 0;
  11:src/tcb.cpp   **** int TCB::thread_limit = 5;
  12:src/tcb.cpp   **** 
  13:src/tcb.cpp   **** TCB *TCB::running = nullptr;
  14:src/tcb.cpp   **** 
  15:src/tcb.cpp   **** 
  16:src/tcb.cpp   **** TCB *TCB::createThread(Body body, void* arg, void* stack)
  17:src/tcb.cpp   **** {
  12              		.loc 1 17 1
  13              		.cfi_startproc
  14              	.LVL0:
  15 0000 130101FD 		addi	sp,sp,-48
  16              		.cfi_def_cfa_offset 48
  17 0004 23341102 		sd	ra,40(sp)
  18 0008 23308102 		sd	s0,32(sp)
  19 000c 233C9100 		sd	s1,24(sp)
  20 0010 23382101 		sd	s2,16(sp)
  21 0014 23343101 		sd	s3,8(sp)
  22 0018 23304101 		sd	s4,0(sp)
  23              		.cfi_offset 1, -8
  24              		.cfi_offset 8, -16
  25              		.cfi_offset 9, -24
  26              		.cfi_offset 18, -32
  27              		.cfi_offset 19, -40
  28              		.cfi_offset 20, -48
  29 001c 13040103 		addi	s0,sp,48
  30              		.cfi_def_cfa 8, 0
  18:src/tcb.cpp   ****     if(thread_limit == id) return nullptr;
  31              		.loc 1 18 5
  32              		.loc 1 18 21 is_stmt 0
  33 0020 17070000 		lw	a4,.LANCHOR0
  33      03270700 
  34 0028 97070000 		lw	a5,.LANCHOR1
  34      83A70700 
  35              		.loc 1 18 5
  36 0030 6308F70A 		beq	a4,a5,.L4
  37 0034 93090500 		mv	s3,a0
  38 0038 138A0500 		mv	s4,a1
GAS LISTING /tmp/ccHLVkUp.s 			page 2


  39 003c 13090600 		mv	s2,a2
  19:src/tcb.cpp   ****     TCB* newTCB = new TCB(body, arg, stack);
  40              		.loc 1 19 5 is_stmt 1
  41              	.LVL1:
  42              	.LBB63:
  43              	.LBB64:
  44              		.file 2 "src/../h/tcb.hpp"
   1:src/../h/tcb.hpp **** #ifndef OS1_VEZBE07_RISCV_CONTEXT_SWITCH_2_INTERRUPT_TCB_HPP
   2:src/../h/tcb.hpp **** #define OS1_VEZBE07_RISCV_CONTEXT_SWITCH_2_INTERRUPT_TCB_HPP
   3:src/../h/tcb.hpp **** 
   4:src/../h/tcb.hpp **** #include "../lib/hw.h"
   5:src/../h/tcb.hpp **** #include "scheduler.hpp"
   6:src/../h/tcb.hpp **** #include "memoryAllocator.hpp"
   7:src/../h/tcb.hpp **** #include "print.hpp"
   8:src/../h/tcb.hpp **** 
   9:src/../h/tcb.hpp **** 
  10:src/../h/tcb.hpp **** // Thread Control Block
  11:src/../h/tcb.hpp **** 
  12:src/../h/tcb.hpp **** 
  13:src/../h/tcb.hpp **** class TCB
  14:src/../h/tcb.hpp **** {
  15:src/../h/tcb.hpp **** public:
  16:src/../h/tcb.hpp ****     static int id;
  17:src/../h/tcb.hpp **** 
  18:src/../h/tcb.hpp ****     ~TCB() { delete[] stack; }
  19:src/../h/tcb.hpp **** 
  20:src/../h/tcb.hpp ****     bool isFinished() const { return finished; }
  21:src/../h/tcb.hpp **** 
  22:src/../h/tcb.hpp ****     void setFinished(bool value) { finished = value; }
  23:src/../h/tcb.hpp **** 
  24:src/../h/tcb.hpp ****     bool isBlocked() const { return this->blocked; }
  25:src/../h/tcb.hpp **** 
  26:src/../h/tcb.hpp ****     void setBlocked(bool value) { this->blocked = value; }
  27:src/../h/tcb.hpp **** 
  28:src/../h/tcb.hpp ****     bool isMain() const { return this->main; }
  29:src/../h/tcb.hpp **** 
  30:src/../h/tcb.hpp ****     int getMyId() const { return myId; }
  31:src/../h/tcb.hpp **** 
  32:src/../h/tcb.hpp ****     static void setMaximumThreads(int num_of_threads){
  33:src/../h/tcb.hpp ****         int n = (num_of_threads == 0 ? 5 : num_of_threads);
  34:src/../h/tcb.hpp ****         thread_limit = n;
  35:src/../h/tcb.hpp ****     }
  36:src/../h/tcb.hpp **** 
  37:src/../h/tcb.hpp ****     using Body = void (*)(void*);
  38:src/../h/tcb.hpp **** 
  39:src/../h/tcb.hpp ****     static TCB *createThread(Body body, void* arg, void* stack);
  40:src/../h/tcb.hpp **** 
  41:src/../h/tcb.hpp ****     static TCB *createThreadWithoutStarting(Body body, void* arg, void* stack);
  42:src/../h/tcb.hpp **** 
  43:src/../h/tcb.hpp ****     static void startThread(TCB* tcbToStart) {
  44:src/../h/tcb.hpp ****         Scheduler::put(tcbToStart);
  45:src/../h/tcb.hpp ****     }
  46:src/../h/tcb.hpp **** 
  47:src/../h/tcb.hpp ****     static void yield();
  48:src/../h/tcb.hpp **** 
  49:src/../h/tcb.hpp ****     static TCB *running;
  50:src/../h/tcb.hpp **** 
GAS LISTING /tmp/ccHLVkUp.s 			page 3


  51:src/../h/tcb.hpp ****     void* operator new(size_t size) {
  52:src/../h/tcb.hpp ****         return MemoryAllocator::mem_alloc(size);
  45              		.loc 2 52 9
  46              		.loc 2 52 42 is_stmt 0
  47 0040 13058004 		li	a0,72
  48              	.LVL2:
  49 0044 97000000 		call	_ZN15MemoryAllocator9mem_allocEm@plt
  49      E7800000 
  50              	.LVL3:
  51 004c 93040500 		mv	s1,a0
  52              	.LVL4:
  53              	.LBE64:
  54              	.LBE63:
  55              	.LBB65:
  56              	.LBB66:
  53:src/../h/tcb.hpp ****     }
  54:src/../h/tcb.hpp ****     void* operator new[](size_t size) {
  55:src/../h/tcb.hpp ****         return MemoryAllocator::mem_alloc(size);
  56:src/../h/tcb.hpp ****     }
  57:src/../h/tcb.hpp ****     
  58:src/../h/tcb.hpp ****     void operator delete(void *ptr) {
  59:src/../h/tcb.hpp ****         MemoryAllocator::mem_free(ptr);
  60:src/../h/tcb.hpp ****     }
  61:src/../h/tcb.hpp ****     void operator delete[](void *ptr) {
  62:src/../h/tcb.hpp ****         MemoryAllocator::mem_free(ptr);
  63:src/../h/tcb.hpp ****     }
  64:src/../h/tcb.hpp **** 
  65:src/../h/tcb.hpp **** 
  66:src/../h/tcb.hpp **** private:
  67:src/../h/tcb.hpp **** 
  68:src/../h/tcb.hpp ****     TCB(Body body, void* arg, void* stk) :
  69:src/../h/tcb.hpp ****             body(body),
  70:src/../h/tcb.hpp ****             stack((uint64*) stk),
  71:src/../h/tcb.hpp ****             //stack(body != nullptr ? new uint64[STACK_SIZE] : nullptr),
  72:src/../h/tcb.hpp ****             context({(uint64) &threadWrapper,
  73:src/../h/tcb.hpp ****                      stack != nullptr ? (uint64) &stack[STACK_SIZE] : 0
  74:src/../h/tcb.hpp ****                     }),
  75:src/../h/tcb.hpp ****             finished(false),
  76:src/../h/tcb.hpp ****             blocked(false),
  77:src/../h/tcb.hpp ****             main(body == nullptr),
  78:src/../h/tcb.hpp ****             arg(arg)
  57              		.loc 2 78 20
  58 0050 23303501 		sd	s3,0(a0)
  59 0054 23342501 		sd	s2,8(a0)
  60 0058 97070000 		lla	a5,_ZN3TCB13threadWrapperEv
  60      93870700 
  61 0060 2338F500 		sd	a5,16(a0)
  73:src/../h/tcb.hpp ****                     }),
  62              		.loc 2 73 39
  63 0064 630A0906 		beqz	s2,.L5
  73:src/../h/tcb.hpp ****                     }),
  64              		.loc 2 73 50
  65 0068 37260000 		li	a2,8192
  66 006c 3309C900 		add	s2,s2,a2
  67              	.LVL5:
  68              	.L3:
  69              		.loc 2 78 20
GAS LISTING /tmp/ccHLVkUp.s 			page 4


  70 0070 23BC2401 		sd	s2,24(s1)
  71 0074 23800402 		sb	zero,32(s1)
  72 0078 A3800402 		sb	zero,33(s1)
  77:src/../h/tcb.hpp ****             arg(arg)
  73              		.loc 2 77 23
  74 007c 93B91900 		seqz	s3,s3
  75              	.LVL6:
  76              		.loc 2 78 20
  77 0080 23813403 		sb	s3,34(s1)
  78 0084 23B44403 		sd	s4,40(s1)
  79              	.LVL7:
  80              	.LBB67:
  81              	.LBB68:
  82              		.file 3 "src/../h/list.hpp"
   1:src/../h/list.hpp **** #ifndef LIST_HPP
   2:src/../h/list.hpp **** #define LIST_HPP
   3:src/../h/list.hpp **** 
   4:src/../h/list.hpp **** #include "memoryAllocator.hpp"
   5:src/../h/list.hpp **** 
   6:src/../h/list.hpp **** template<typename T>
   7:src/../h/list.hpp **** class List
   8:src/../h/list.hpp **** {
   9:src/../h/list.hpp **** private:
  10:src/../h/list.hpp ****     struct Elem
  11:src/../h/list.hpp ****     {
  12:src/../h/list.hpp ****         T *data;
  13:src/../h/list.hpp ****         Elem *next;
  14:src/../h/list.hpp **** 
  15:src/../h/list.hpp ****         Elem(T *data, Elem *next) : data(data), next(next) {}
  16:src/../h/list.hpp **** 
  17:src/../h/list.hpp ****         void* operator new(size_t size) {
  18:src/../h/list.hpp ****             return MemoryAllocator::mem_alloc(size);
  19:src/../h/list.hpp ****         }
  20:src/../h/list.hpp ****         void* operator new[](size_t size) {
  21:src/../h/list.hpp ****             return MemoryAllocator::mem_alloc(size);
  22:src/../h/list.hpp ****         }
  23:src/../h/list.hpp ****         
  24:src/../h/list.hpp ****         void operator delete(void *ptr) {
  25:src/../h/list.hpp ****             MemoryAllocator::mem_free(ptr);
  26:src/../h/list.hpp ****         }
  27:src/../h/list.hpp ****         void operator delete[](void *ptr) {
  28:src/../h/list.hpp ****             MemoryAllocator::mem_free(ptr);
  29:src/../h/list.hpp ****         }
  30:src/../h/list.hpp ****     };
  31:src/../h/list.hpp **** 
  32:src/../h/list.hpp ****     Elem *head, *tail;
  33:src/../h/list.hpp **** 
  34:src/../h/list.hpp **** public:
  35:src/../h/list.hpp ****     List() : head(0), tail(0) {}
  83              		.loc 3 35 29
  84 0088 23B80402 		sd	zero,48(s1)
  85 008c 23BC0402 		sd	zero,56(s1)
  86              	.LVL8:
  87              	.LBE68:
  88              	.LBE67:
  79:src/../h/tcb.hpp **** 
  80:src/../h/tcb.hpp ****     {
GAS LISTING /tmp/ccHLVkUp.s 			page 5


  81:src/../h/tcb.hpp ****         myId = ++id;
  89              		.loc 2 81 9 is_stmt 1
  90              		.loc 2 81 16 is_stmt 0
  91 0090 17070000 		lla	a4,.LANCHOR1
  91      13070700 
  92 0098 83270700 		lw	a5,0(a4)
  93 009c 9B871700 		addiw	a5,a5,1
  94              		.loc 2 81 14
  95 00a0 2320F700 		sw	a5,0(a4)
  96              	.LVL9:
  97 00a4 23A0F404 		sw	a5,64(s1)
  98              	.LVL10:
  99              	.LBE66:
 100              	.LBE65:
  20:src/tcb.cpp   ****     Scheduler::put(newTCB);
 101              		.loc 1 20 5 is_stmt 1
 102              		.loc 1 20 19 is_stmt 0
 103 00a8 13850400 		mv	a0,s1
 104 00ac 97000000 		call	_ZN9Scheduler3putEP3TCB@plt
 104      E7800000 
 105              	.LVL11:
  21:src/tcb.cpp   ****     return newTCB;
 106              		.loc 1 21 5 is_stmt 1
 107              	.L1:
  22:src/tcb.cpp   **** }
 108              		.loc 1 22 1 is_stmt 0
 109 00b4 13850400 		mv	a0,s1
 110 00b8 83308102 		ld	ra,40(sp)
 111              		.cfi_remember_state
 112              		.cfi_restore 1
 113 00bc 03340102 		ld	s0,32(sp)
 114              		.cfi_restore 8
 115              		.cfi_def_cfa 2, 48
 116 00c0 83348101 		ld	s1,24(sp)
 117              		.cfi_restore 9
 118 00c4 03390101 		ld	s2,16(sp)
 119              		.cfi_restore 18
 120 00c8 83398100 		ld	s3,8(sp)
 121              		.cfi_restore 19
 122 00cc 033A0100 		ld	s4,0(sp)
 123              		.cfi_restore 20
 124 00d0 13010103 		addi	sp,sp,48
 125              		.cfi_def_cfa_offset 0
 126 00d4 67800000 		jr	ra
 127              	.LVL12:
 128              	.L5:
 129              		.cfi_restore_state
 130              	.LBB70:
 131              	.LBB69:
  73:src/../h/tcb.hpp ****                     }),
 132              		.loc 2 73 39
 133 00d8 13090000 		li	s2,0
 134              	.LVL13:
 135 00dc 6FF05FF9 		j	.L3
 136              	.LVL14:
 137              	.L4:
 138              	.LBE69:
GAS LISTING /tmp/ccHLVkUp.s 			page 6


 139              	.LBE70:
  18:src/tcb.cpp   ****     TCB* newTCB = new TCB(body, arg, stack);
 140              		.loc 1 18 35
 141 00e0 93040000 		li	s1,0
 142 00e4 6FF01FFD 		j	.L1
 143              		.cfi_endproc
 144              	.LFE56:
 146              		.align	2
 147              		.globl	_ZN3TCB27createThreadWithoutStartingEPFvPvES0_S0_
 149              	_ZN3TCB27createThreadWithoutStartingEPFvPvES0_S0_:
 150              	.LFB57:
  23:src/tcb.cpp   **** 
  24:src/tcb.cpp   **** TCB *TCB::createThreadWithoutStarting(Body body, void* arg, void* stack)
  25:src/tcb.cpp   **** {
 151              		.loc 1 25 1 is_stmt 1
 152              		.cfi_startproc
 153              	.LVL15:
  26:src/tcb.cpp   ****     if(thread_limit == id) return nullptr;
 154              		.loc 1 26 5
 155              		.loc 1 26 21 is_stmt 0
 156 00e8 17070000 		lw	a4,.LANCHOR0
 156      03270700 
 157 00f0 97070000 		lw	a5,.LANCHOR1
 157      83A70700 
 158              		.loc 1 26 5
 159 00f8 630AF70A 		beq	a4,a5,.L10
  25:src/tcb.cpp   ****     if(thread_limit == id) return nullptr;
 160              		.loc 1 25 1
 161 00fc 130101FD 		addi	sp,sp,-48
 162              		.cfi_def_cfa_offset 48
 163 0100 23341102 		sd	ra,40(sp)
 164 0104 23308102 		sd	s0,32(sp)
 165 0108 233C9100 		sd	s1,24(sp)
 166 010c 23382101 		sd	s2,16(sp)
 167 0110 23343101 		sd	s3,8(sp)
 168              		.cfi_offset 1, -8
 169              		.cfi_offset 8, -16
 170              		.cfi_offset 9, -24
 171              		.cfi_offset 18, -32
 172              		.cfi_offset 19, -40
 173 0114 13040103 		addi	s0,sp,48
 174              		.cfi_def_cfa 8, 0
 175 0118 13090500 		mv	s2,a0
 176 011c 93890500 		mv	s3,a1
 177 0120 93040600 		mv	s1,a2
  27:src/tcb.cpp   ****     TCB* newTCB = new TCB(body, arg, stack);
 178              		.loc 1 27 5 is_stmt 1
 179              	.LVL16:
 180              	.LBB71:
 181              	.LBB72:
  52:src/../h/tcb.hpp ****     }
 182              		.loc 2 52 9
  52:src/../h/tcb.hpp ****     }
 183              		.loc 2 52 42 is_stmt 0
 184 0124 13058004 		li	a0,72
 185              	.LVL17:
 186 0128 97000000 		call	_ZN15MemoryAllocator9mem_allocEm@plt
GAS LISTING /tmp/ccHLVkUp.s 			page 7


 186      E7800000 
 187              	.LVL18:
 188              	.LBE72:
 189              	.LBE71:
 190              	.LBB73:
 191              	.LBB74:
  78:src/../h/tcb.hpp **** 
 192              		.loc 2 78 20
 193 0130 23302501 		sd	s2,0(a0)
 194 0134 23349500 		sd	s1,8(a0)
 195 0138 97070000 		lla	a5,_ZN3TCB13threadWrapperEv
 195      93870700 
 196 0140 2338F500 		sd	a5,16(a0)
  73:src/../h/tcb.hpp ****                     }),
 197              		.loc 2 73 39
 198 0144 63800406 		beqz	s1,.L11
  73:src/../h/tcb.hpp ****                     }),
 199              		.loc 2 73 50
 200 0148 37260000 		li	a2,8192
 201 014c B384C400 		add	s1,s1,a2
 202              	.LVL19:
 203              	.L9:
  78:src/../h/tcb.hpp **** 
 204              		.loc 2 78 20
 205 0150 233C9500 		sd	s1,24(a0)
 206 0154 23000502 		sb	zero,32(a0)
 207 0158 A3000502 		sb	zero,33(a0)
  77:src/../h/tcb.hpp ****             arg(arg)
 208              		.loc 2 77 23
 209 015c 13391900 		seqz	s2,s2
 210              	.LVL20:
  78:src/../h/tcb.hpp **** 
 211              		.loc 2 78 20
 212 0160 23012503 		sb	s2,34(a0)
 213 0164 23343503 		sd	s3,40(a0)
 214              	.LVL21:
 215              	.LBB75:
 216              	.LBB76:
 217              		.loc 3 35 29
 218 0168 23380502 		sd	zero,48(a0)
 219 016c 233C0502 		sd	zero,56(a0)
 220              	.LVL22:
 221              	.LBE76:
 222              	.LBE75:
 223              		.loc 2 81 9 is_stmt 1
 224              		.loc 2 81 16 is_stmt 0
 225 0170 17070000 		lla	a4,.LANCHOR1
 225      13070700 
 226 0178 83270700 		lw	a5,0(a4)
 227 017c 9B871700 		addiw	a5,a5,1
 228              		.loc 2 81 14
 229 0180 2320F700 		sw	a5,0(a4)
 230              	.LVL23:
 231 0184 2320F504 		sw	a5,64(a0)
 232              	.LVL24:
 233              	.LBE74:
 234              	.LBE73:
GAS LISTING /tmp/ccHLVkUp.s 			page 8


  28:src/tcb.cpp   ****     //Scheduler::put(newTCB);
  29:src/tcb.cpp   ****     return newTCB;
 235              		.loc 1 29 5 is_stmt 1
  30:src/tcb.cpp   **** }
 236              		.loc 1 30 1 is_stmt 0
 237 0188 83308102 		ld	ra,40(sp)
 238              		.cfi_remember_state
 239              		.cfi_restore 1
 240 018c 03340102 		ld	s0,32(sp)
 241              		.cfi_restore 8
 242              		.cfi_def_cfa 2, 48
 243 0190 83348101 		ld	s1,24(sp)
 244              		.cfi_restore 9
 245 0194 03390101 		ld	s2,16(sp)
 246              		.cfi_restore 18
 247 0198 83398100 		ld	s3,8(sp)
 248              		.cfi_restore 19
 249              	.LVL25:
 250 019c 13010103 		addi	sp,sp,48
 251              		.cfi_def_cfa_offset 0
 252 01a0 67800000 		jr	ra
 253              	.LVL26:
 254              	.L11:
 255              		.cfi_restore_state
 256              	.LBB78:
 257              	.LBB77:
  73:src/../h/tcb.hpp ****                     }),
 258              		.loc 2 73 39
 259 01a4 93040000 		li	s1,0
 260              	.LVL27:
 261 01a8 6FF09FFA 		j	.L9
 262              	.LVL28:
 263              	.L10:
 264              		.cfi_def_cfa_register 2
 265              		.cfi_restore 1
 266              		.cfi_restore 8
 267              		.cfi_restore 9
 268              		.cfi_restore 18
 269              		.cfi_restore 19
 270              	.LBE77:
 271              	.LBE78:
  26:src/tcb.cpp   ****     TCB* newTCB = new TCB(body, arg, stack);
 272              		.loc 1 26 35
 273 01ac 13050000 		li	a0,0
 274              	.LVL29:
 275              		.loc 1 30 1
 276 01b0 67800000 		ret
 277              		.cfi_endproc
 278              	.LFE57:
 280              		.align	2
 281              		.globl	_ZN3TCB5yieldEv
 283              	_ZN3TCB5yieldEv:
 284              	.LFB58:
  31:src/tcb.cpp   **** 
  32:src/tcb.cpp   **** void TCB::yield()
  33:src/tcb.cpp   **** {
 285              		.loc 1 33 1 is_stmt 1
GAS LISTING /tmp/ccHLVkUp.s 			page 9


 286              		.cfi_startproc
 287 01b4 130101FF 		addi	sp,sp,-16
 288              		.cfi_def_cfa_offset 16
 289 01b8 23348100 		sd	s0,8(sp)
 290              		.cfi_offset 8, -8
 291 01bc 13040101 		addi	s0,sp,16
 292              		.cfi_def_cfa 8, 0
  34:src/tcb.cpp   ****     Riscv::w_a0(0x13);
 293              		.loc 1 34 5
 294              	.LVL30:
 295              	.LBB79:
 296              	.LBB80:
 297              		.file 4 "src/../h/riscv.hpp"
   1:src/../h/riscv.hpp **** #ifndef RISCV_HPP
   2:src/../h/riscv.hpp **** #define RISCV_HPP
   3:src/../h/riscv.hpp **** 
   4:src/../h/riscv.hpp **** #include "../lib/hw.h"
   5:src/../h/riscv.hpp **** 
   6:src/../h/riscv.hpp **** class Riscv
   7:src/../h/riscv.hpp **** {
   8:src/../h/riscv.hpp **** public:
   9:src/../h/riscv.hpp **** 
  10:src/../h/riscv.hpp ****     // pop sstatus.spp and sstatus.spie bits (has to be a non inline function)
  11:src/../h/riscv.hpp ****     static void popSppSpie();
  12:src/../h/riscv.hpp **** 
  13:src/../h/riscv.hpp ****     // read register scause
  14:src/../h/riscv.hpp ****     static uint64 r_scause();
  15:src/../h/riscv.hpp **** 
  16:src/../h/riscv.hpp ****     // write register scause
  17:src/../h/riscv.hpp ****     static void w_scause(uint64 scause);
  18:src/../h/riscv.hpp **** 
  19:src/../h/riscv.hpp ****     // read register sepc
  20:src/../h/riscv.hpp ****     static uint64 r_sepc();
  21:src/../h/riscv.hpp **** 
  22:src/../h/riscv.hpp ****     // write register sepc
  23:src/../h/riscv.hpp ****     static void w_sepc(uint64 sepc);
  24:src/../h/riscv.hpp **** 
  25:src/../h/riscv.hpp ****     // read register stvec
  26:src/../h/riscv.hpp ****     static uint64 r_stvec();
  27:src/../h/riscv.hpp **** 
  28:src/../h/riscv.hpp ****     // write register stvec
  29:src/../h/riscv.hpp ****     static void w_stvec(uint64 stvec);
  30:src/../h/riscv.hpp **** 
  31:src/../h/riscv.hpp ****     // read register stval
  32:src/../h/riscv.hpp ****     static uint64 r_stval();
  33:src/../h/riscv.hpp **** 
  34:src/../h/riscv.hpp ****     // write register stval
  35:src/../h/riscv.hpp ****     static void w_stval(uint64 stval);
  36:src/../h/riscv.hpp **** 
  37:src/../h/riscv.hpp ****     enum BitMaskSip
  38:src/../h/riscv.hpp ****     {
  39:src/../h/riscv.hpp ****         SIP_SSIP = (1 << 1),
  40:src/../h/riscv.hpp ****         SIP_STIP = (1 << 5),
  41:src/../h/riscv.hpp ****         SIP_SEIP = (1 << 9),
  42:src/../h/riscv.hpp ****     };
  43:src/../h/riscv.hpp **** 
  44:src/../h/riscv.hpp ****     // mask set register sip
GAS LISTING /tmp/ccHLVkUp.s 			page 10


  45:src/../h/riscv.hpp ****     static void ms_sip(uint64 mask);
  46:src/../h/riscv.hpp **** 
  47:src/../h/riscv.hpp ****     // mask clear register sip
  48:src/../h/riscv.hpp ****     static void mc_sip(uint64 mask);
  49:src/../h/riscv.hpp **** 
  50:src/../h/riscv.hpp ****     // read register sip
  51:src/../h/riscv.hpp ****     static uint64 r_sip();
  52:src/../h/riscv.hpp **** 
  53:src/../h/riscv.hpp ****     // write register sip
  54:src/../h/riscv.hpp ****     static void w_sip(uint64 sip);
  55:src/../h/riscv.hpp **** 
  56:src/../h/riscv.hpp ****     enum BitMaskSstatus
  57:src/../h/riscv.hpp ****     {
  58:src/../h/riscv.hpp ****         SSTATUS_SIE = (1 << 1),
  59:src/../h/riscv.hpp ****         SSTATUS_SPIE = (1 << 5),
  60:src/../h/riscv.hpp ****         SSTATUS_SPP = (1 << 8),
  61:src/../h/riscv.hpp ****     };
  62:src/../h/riscv.hpp **** 
  63:src/../h/riscv.hpp ****     // mask set register sstatus
  64:src/../h/riscv.hpp ****     static void ms_sstatus(uint64 mask);
  65:src/../h/riscv.hpp **** 
  66:src/../h/riscv.hpp ****     // mask clear register sstatus
  67:src/../h/riscv.hpp ****     static void mc_sstatus(uint64 mask);
  68:src/../h/riscv.hpp **** 
  69:src/../h/riscv.hpp ****     // read register sstatus
  70:src/../h/riscv.hpp ****     static uint64 r_sstatus();
  71:src/../h/riscv.hpp **** 
  72:src/../h/riscv.hpp ****     // write register sstatus
  73:src/../h/riscv.hpp ****     static void w_sstatus(uint64 sstatus);
  74:src/../h/riscv.hpp **** 
  75:src/../h/riscv.hpp ****     // supervisor trap
  76:src/../h/riscv.hpp ****     static void supervisorTrap();
  77:src/../h/riscv.hpp **** 
  78:src/../h/riscv.hpp ****     //stvec Vector "table"
  79:src/../h/riscv.hpp ****     static void vectorTable();
  80:src/../h/riscv.hpp **** 
  81:src/../h/riscv.hpp ****     //read a0 register
  82:src/../h/riscv.hpp ****     static uint64 r_a0();
  83:src/../h/riscv.hpp **** 
  84:src/../h/riscv.hpp ****     //write to a0 register
  85:src/../h/riscv.hpp ****     static void w_a0(uint64 writeValue);
  86:src/../h/riscv.hpp **** 
  87:src/../h/riscv.hpp **** 
  88:src/../h/riscv.hpp **** private:
  89:src/../h/riscv.hpp **** 
  90:src/../h/riscv.hpp ****     // supervisor trap handler
  91:src/../h/riscv.hpp ****     static void handleSupervisorTrap();
  92:src/../h/riscv.hpp **** 
  93:src/../h/riscv.hpp ****     static void handleTimerInterrupt();
  94:src/../h/riscv.hpp **** 
  95:src/../h/riscv.hpp ****     static void handleConsoleInterrupt();
  96:src/../h/riscv.hpp **** };
  97:src/../h/riscv.hpp **** 
  98:src/../h/riscv.hpp **** 
  99:src/../h/riscv.hpp **** inline uint64 Riscv::r_scause()
 100:src/../h/riscv.hpp **** {
 101:src/../h/riscv.hpp ****     uint64 volatile scause;
GAS LISTING /tmp/ccHLVkUp.s 			page 11


 102:src/../h/riscv.hpp ****     __asm__ volatile ("csrr %[scause], scause" : [scause] "=r"(scause));
 103:src/../h/riscv.hpp ****     return scause;
 104:src/../h/riscv.hpp **** }
 105:src/../h/riscv.hpp **** 
 106:src/../h/riscv.hpp **** inline void Riscv::w_scause(uint64 scause)
 107:src/../h/riscv.hpp **** {
 108:src/../h/riscv.hpp ****     __asm__ volatile ("csrw scause, %[scause]" : : [scause] "r"(scause));
 109:src/../h/riscv.hpp **** }
 110:src/../h/riscv.hpp **** 
 111:src/../h/riscv.hpp **** inline uint64 Riscv::r_sepc()
 112:src/../h/riscv.hpp **** {
 113:src/../h/riscv.hpp ****     uint64 volatile sepc;
 114:src/../h/riscv.hpp ****     __asm__ volatile ("csrr %[sepc], sepc" : [sepc] "=r"(sepc));
 115:src/../h/riscv.hpp ****     return sepc;
 116:src/../h/riscv.hpp **** }
 117:src/../h/riscv.hpp **** 
 118:src/../h/riscv.hpp **** inline void Riscv::w_sepc(uint64 sepc)
 119:src/../h/riscv.hpp **** {
 120:src/../h/riscv.hpp ****     __asm__ volatile ("csrw sepc, %[sepc]" : : [sepc] "r"(sepc));
 121:src/../h/riscv.hpp **** }
 122:src/../h/riscv.hpp **** 
 123:src/../h/riscv.hpp **** inline uint64 Riscv::r_stvec()
 124:src/../h/riscv.hpp **** {
 125:src/../h/riscv.hpp ****     uint64 volatile stvec;
 126:src/../h/riscv.hpp ****     __asm__ volatile ("csrr %[stvec], stvec" : [stvec] "=r"(stvec));
 127:src/../h/riscv.hpp ****     return stvec;
 128:src/../h/riscv.hpp **** }
 129:src/../h/riscv.hpp **** 
 130:src/../h/riscv.hpp **** inline void Riscv::w_stvec(uint64 stvec)
 131:src/../h/riscv.hpp **** {
 132:src/../h/riscv.hpp ****     __asm__ volatile ("csrw stvec, %[stvec]" : : [stvec] "r"(stvec));
 133:src/../h/riscv.hpp **** }
 134:src/../h/riscv.hpp **** 
 135:src/../h/riscv.hpp **** inline uint64 Riscv::r_stval()
 136:src/../h/riscv.hpp **** {
 137:src/../h/riscv.hpp ****     uint64 volatile stval;
 138:src/../h/riscv.hpp ****     __asm__ volatile ("csrr %[stval], stval" : [stval] "=r"(stval));
 139:src/../h/riscv.hpp ****     return stval;
 140:src/../h/riscv.hpp **** }
 141:src/../h/riscv.hpp **** 
 142:src/../h/riscv.hpp **** inline void Riscv::w_stval(uint64 stval)
 143:src/../h/riscv.hpp **** {
 144:src/../h/riscv.hpp ****     __asm__ volatile ("csrw stval, %[stval]" : : [stval] "r"(stval));
 145:src/../h/riscv.hpp **** }
 146:src/../h/riscv.hpp **** 
 147:src/../h/riscv.hpp **** inline void Riscv::ms_sip(uint64 mask)
 148:src/../h/riscv.hpp **** {
 149:src/../h/riscv.hpp ****     __asm__ volatile ("csrs sip, %[mask]" : : [mask] "r"(mask));
 150:src/../h/riscv.hpp **** }
 151:src/../h/riscv.hpp **** 
 152:src/../h/riscv.hpp **** inline void Riscv::mc_sip(uint64 mask)
 153:src/../h/riscv.hpp **** {
 154:src/../h/riscv.hpp ****     __asm__ volatile ("csrc sip, %[mask]" : : [mask] "r"(mask));
 155:src/../h/riscv.hpp **** }
 156:src/../h/riscv.hpp **** 
 157:src/../h/riscv.hpp **** inline uint64 Riscv::r_sip()
 158:src/../h/riscv.hpp **** {
GAS LISTING /tmp/ccHLVkUp.s 			page 12


 159:src/../h/riscv.hpp ****     uint64 volatile sip;
 160:src/../h/riscv.hpp ****     __asm__ volatile ("csrr %[sip], sip" : [sip] "=r"(sip));
 161:src/../h/riscv.hpp ****     return sip;
 162:src/../h/riscv.hpp **** }
 163:src/../h/riscv.hpp **** 
 164:src/../h/riscv.hpp **** inline void Riscv::w_sip(uint64 sip)
 165:src/../h/riscv.hpp **** {
 166:src/../h/riscv.hpp ****     __asm__ volatile ("csrw sip, %[sip]" : : [sip] "r"(sip));
 167:src/../h/riscv.hpp **** }
 168:src/../h/riscv.hpp **** 
 169:src/../h/riscv.hpp **** inline void Riscv::ms_sstatus(uint64 mask)
 170:src/../h/riscv.hpp **** {
 171:src/../h/riscv.hpp ****     __asm__ volatile ("csrs sstatus, %[mask]" : : [mask] "r"(mask));
 172:src/../h/riscv.hpp **** }
 173:src/../h/riscv.hpp **** 
 174:src/../h/riscv.hpp **** inline void Riscv::mc_sstatus(uint64 mask)
 175:src/../h/riscv.hpp **** {
 176:src/../h/riscv.hpp ****     __asm__ volatile ("csrc sstatus, %[mask]" : : [mask] "r"(mask));
 177:src/../h/riscv.hpp **** }
 178:src/../h/riscv.hpp **** 
 179:src/../h/riscv.hpp **** inline uint64 Riscv::r_sstatus()
 180:src/../h/riscv.hpp **** {
 181:src/../h/riscv.hpp ****     uint64 volatile sstatus;
 182:src/../h/riscv.hpp ****     __asm__ volatile ("csrr %[sstatus], sstatus" : [sstatus] "=r"(sstatus));
 183:src/../h/riscv.hpp ****     return sstatus;
 184:src/../h/riscv.hpp **** }
 185:src/../h/riscv.hpp **** 
 186:src/../h/riscv.hpp **** inline void Riscv::w_sstatus(uint64 sstatus)
 187:src/../h/riscv.hpp **** {
 188:src/../h/riscv.hpp ****     __asm__ volatile ("csrw sstatus, %[sstatus]" : : [sstatus] "r"(sstatus));
 189:src/../h/riscv.hpp **** }
 190:src/../h/riscv.hpp **** 
 191:src/../h/riscv.hpp **** //a0
 192:src/../h/riscv.hpp **** inline uint64 Riscv::r_a0()
 193:src/../h/riscv.hpp **** {
 194:src/../h/riscv.hpp ****     uint64 volatile a0;
 195:src/../h/riscv.hpp ****     __asm__ volatile ("mv %0, a0" : "=r"(a0));
 196:src/../h/riscv.hpp ****     return a0;
 197:src/../h/riscv.hpp **** }
 198:src/../h/riscv.hpp **** 
 199:src/../h/riscv.hpp **** 
 200:src/../h/riscv.hpp **** inline void Riscv::w_a0(uint64 writeValue) {
 201:src/../h/riscv.hpp ****     __asm__ volatile ("mv a0, %0" : : "r"(writeValue));
 298              		.loc 4 201 5
 299              		.loc 4 201 55 is_stmt 0
 300 01c0 93073001 		li	a5,19
 301              	#APP
 302              	# 201 "src/../h/riscv.hpp" 1
 202              	}
 303              		mv a0, a5
 304              	# 0 "" 2
 305              	.LVL31:
 306              	#NO_APP
 307              	.LBE80:
 308              	.LBE79:
  35:src/tcb.cpp   ****     __asm__ volatile ("ecall");
 309              		.loc 1 35 5 is_stmt 1
GAS LISTING /tmp/ccHLVkUp.s 			page 13


 310              		.loc 1 35 31 is_stmt 0
 311              	#APP
 312              	# 35 "src/tcb.cpp" 1
  36              	}
 313              		ecall
 314              	# 0 "" 2
 315              		.loc 1 36 1
 316              	#NO_APP
 317 01cc 03348100 		ld	s0,8(sp)
 318              		.cfi_restore 8
 319              		.cfi_def_cfa 2, 16
 320 01d0 13010101 		addi	sp,sp,16
 321              		.cfi_def_cfa_offset 0
 322 01d4 67800000 		jr	ra
 323              		.cfi_endproc
 324              	.LFE58:
 326              		.align	2
 327              		.globl	_ZN3TCB8dispatchEv
 329              	_ZN3TCB8dispatchEv:
 330              	.LFB59:
  37:src/tcb.cpp   **** 
  38:src/tcb.cpp   **** void TCB::dispatch()
  39:src/tcb.cpp   **** {
 331              		.loc 1 39 1 is_stmt 1
 332              		.cfi_startproc
 333 01d8 130101FE 		addi	sp,sp,-32
 334              		.cfi_def_cfa_offset 32
 335 01dc 233C1100 		sd	ra,24(sp)
 336 01e0 23388100 		sd	s0,16(sp)
 337 01e4 23349100 		sd	s1,8(sp)
 338              		.cfi_offset 1, -8
 339              		.cfi_offset 8, -16
 340              		.cfi_offset 9, -24
 341 01e8 13040102 		addi	s0,sp,32
 342              		.cfi_def_cfa 8, 0
  40:src/tcb.cpp   ****     TCB *old = running;
 343              		.loc 1 40 5
 344              		.loc 1 40 10 is_stmt 0
 345 01ec 97040000 		ld	s1,.LANCHOR1+8
 345      83B40400 
 346              	.LVL32:
  41:src/tcb.cpp   ****     if (!old->isFinished() && !old->isBlocked()) { Scheduler::put(old); }
 347              		.loc 1 41 5 is_stmt 1
 348              	.LBB81:
 349              	.LBB82:
  20:src/../h/tcb.hpp **** 
 350              		.loc 2 20 31
  20:src/../h/tcb.hpp **** 
 351              		.loc 2 20 38 is_stmt 0
 352 01f4 83C70402 		lbu	a5,32(s1)
 353              	.LVL33:
 354              	.LBE82:
 355              	.LBE81:
 356              		.loc 1 41 28
 357 01f8 63960700 		bnez	a5,.L19
 358              	.LVL34:
 359              	.LBB83:
GAS LISTING /tmp/ccHLVkUp.s 			page 14


 360              	.LBB84:
  24:src/../h/tcb.hpp **** 
 361              		.loc 2 24 30 is_stmt 1
  24:src/../h/tcb.hpp **** 
 362              		.loc 2 24 43 is_stmt 0
 363 01fc 83C71402 		lbu	a5,33(s1)
 364              	.LVL35:
 365              	.LBE84:
 366              	.LBE83:
 367              		.loc 1 41 28
 368 0200 63840704 		beqz	a5,.L23
 369              	.L19:
  42:src/tcb.cpp   ****     running = Scheduler::get();
 370              		.loc 1 42 5 is_stmt 1
 371              		.loc 1 42 29 is_stmt 0
 372 0204 97000000 		call	_ZN9Scheduler3getEv@plt
 372      E7800000 
 373              	.LVL36:
 374              		.loc 1 42 13
 375 020c 97070000 		sd	a0,.LANCHOR1+8,a5
 375      23B0A700 
  43:src/tcb.cpp   **** 
  44:src/tcb.cpp   ****     if(running->isMain()) {
 376              		.loc 1 44 5 is_stmt 1
 377              	.LVL37:
 378              	.LBB85:
 379              	.LBB86:
  28:src/../h/tcb.hpp **** 
 380              		.loc 2 28 27
  28:src/../h/tcb.hpp **** 
 381              		.loc 2 28 40 is_stmt 0
 382 0214 83472502 		lbu	a5,34(a0)
 383              	.LVL38:
 384              	.LBE86:
 385              	.LBE85:
 386              		.loc 1 44 5
 387 0218 63800704 		beqz	a5,.L20
  45:src/tcb.cpp   ****         Riscv::ms_sstatus(Riscv::SSTATUS_SPP);
 388              		.loc 1 45 9 is_stmt 1
 389              	.LVL39:
 390              	.LBB87:
 391              	.LBB88:
 171:src/../h/riscv.hpp **** }
 392              		.loc 4 171 5
 171:src/../h/riscv.hpp **** }
 393              		.loc 4 171 68 is_stmt 0
 394 021c 93070010 		li	a5,256
 395              	#APP
 396              	# 171 "src/../h/riscv.hpp" 1
 397              		csrs sstatus, a5
 398              	# 0 "" 2
 399              	.LVL40:
 400              	#NO_APP
 401              	.L21:
 402              	.LBE88:
 403              	.LBE87:
  46:src/tcb.cpp   ****     }
GAS LISTING /tmp/ccHLVkUp.s 			page 15


  47:src/tcb.cpp   ****     else {
  48:src/tcb.cpp   ****         Riscv::mc_sstatus(Riscv::SSTATUS_SPP);
  49:src/tcb.cpp   ****     }
  50:src/tcb.cpp   ****     TCB::contextSwitch(&old->context, &running->context);
 404              		.loc 1 50 5 is_stmt 1
 405              		.loc 1 50 23 is_stmt 0
 406 0224 93050501 		addi	a1,a0,16
 407 0228 13850401 		addi	a0,s1,16
 408 022c 97000000 		call	_ZN3TCB13contextSwitchEPNS_7ContextES1_@plt
 408      E7800000 
 409              	.LVL41:
  51:src/tcb.cpp   **** }
 410              		.loc 1 51 1
 411 0234 83308101 		ld	ra,24(sp)
 412              		.cfi_remember_state
 413              		.cfi_restore 1
 414 0238 03340101 		ld	s0,16(sp)
 415              		.cfi_restore 8
 416              		.cfi_def_cfa 2, 32
 417 023c 83348100 		ld	s1,8(sp)
 418              		.cfi_restore 9
 419              	.LVL42:
 420 0240 13010102 		addi	sp,sp,32
 421              		.cfi_def_cfa_offset 0
 422 0244 67800000 		jr	ra
 423              	.LVL43:
 424              	.L23:
 425              		.cfi_restore_state
  41:src/tcb.cpp   ****     running = Scheduler::get();
 426              		.loc 1 41 52 is_stmt 1
  41:src/tcb.cpp   ****     running = Scheduler::get();
 427              		.loc 1 41 66 is_stmt 0
 428 0248 13850400 		mv	a0,s1
 429 024c 97000000 		call	_ZN9Scheduler3putEP3TCB@plt
 429      E7800000 
 430              	.LVL44:
 431 0254 6FF01FFB 		j	.L19
 432              	.L20:
  48:src/tcb.cpp   ****     }
 433              		.loc 1 48 9 is_stmt 1
 434              	.LVL45:
 435              	.LBB89:
 436              	.LBB90:
 176:src/../h/riscv.hpp **** }
 437              		.loc 4 176 5
 176:src/../h/riscv.hpp **** }
 438              		.loc 4 176 68 is_stmt 0
 439 0258 93070010 		li	a5,256
 440              	#APP
 441              	# 176 "src/../h/riscv.hpp" 1
 177:src/../h/riscv.hpp **** 
 442              		csrc sstatus, a5
 443              	# 0 "" 2
 444              		.loc 4 177 1
 445              	#NO_APP
 446 0260 6FF05FFC 		j	.L21
 447              	.LBE90:
GAS LISTING /tmp/ccHLVkUp.s 			page 16


 448              	.LBE89:
 449              		.cfi_endproc
 450              	.LFE59:
 452              		.align	2
 453              		.globl	_ZN3TCB4joinEPS_
 455              	_ZN3TCB4joinEPS_:
 456              	.LFB61:
  52:src/tcb.cpp   **** 
  53:src/tcb.cpp   **** void TCB::threadWrapper()
  54:src/tcb.cpp   **** {
  55:src/tcb.cpp   ****     Riscv::popSppSpie();
  56:src/tcb.cpp   ****     running->body(running->arg);
  57:src/tcb.cpp   ****     running->setFinished(true);
  58:src/tcb.cpp   ****     running->releaseAll();
  59:src/tcb.cpp   ****     thread_dispatch();
  60:src/tcb.cpp   **** }
  61:src/tcb.cpp   **** 
  62:src/tcb.cpp   **** void TCB::join(TCB* handle) {
 457              		.loc 1 62 29 is_stmt 1
 458              		.cfi_startproc
 459              	.LVL46:
  63:src/tcb.cpp   ****     if(!handle->isFinished()) {
 460              		.loc 1 63 5
 461              	.LBB91:
 462              	.LBB92:
  20:src/../h/tcb.hpp **** 
 463              		.loc 2 20 31
  20:src/../h/tcb.hpp **** 
 464              		.loc 2 20 38 is_stmt 0
 465 0264 83470502 		lbu	a5,32(a0)
 466              	.LVL47:
 467              	.LBE92:
 468              	.LBE91:
 469              		.loc 1 63 5
 470 0268 63840700 		beqz	a5,.L31
 471 026c 67800000 		ret
 472              	.L31:
  62:src/tcb.cpp   ****     if(!handle->isFinished()) {
 473              		.loc 1 62 29
 474 0270 130101FE 		addi	sp,sp,-32
 475              		.cfi_def_cfa_offset 32
 476 0274 233C1100 		sd	ra,24(sp)
 477 0278 23388100 		sd	s0,16(sp)
 478 027c 23349100 		sd	s1,8(sp)
 479 0280 23302101 		sd	s2,0(sp)
 480              		.cfi_offset 1, -8
 481              		.cfi_offset 8, -16
 482              		.cfi_offset 9, -24
 483              		.cfi_offset 18, -32
 484 0284 13040102 		addi	s0,sp,32
 485              		.cfi_def_cfa 8, 0
 486 0288 93040500 		mv	s1,a0
  64:src/tcb.cpp   ****         running->setBlocked(true);
 487              		.loc 1 64 9 is_stmt 1
 488              		.loc 1 64 28 is_stmt 0
 489 028c 17090000 		ld	s2,.LANCHOR1+8
 489      03390900 
GAS LISTING /tmp/ccHLVkUp.s 			page 17


 490              	.LVL48:
 491              	.LBB93:
 492              	.LBB94:
  26:src/../h/tcb.hpp **** 
 493              		.loc 2 26 35 is_stmt 1
  26:src/../h/tcb.hpp **** 
 494              		.loc 2 26 49 is_stmt 0
 495 0294 93071000 		li	a5,1
 496 0298 A300F902 		sb	a5,33(s2)
 497              	.LVL49:
 498              	.LBE94:
 499              	.LBE93:
  65:src/tcb.cpp   ****         handle->joined.addLast(running);
 500              		.loc 1 65 9 is_stmt 1
 501              	.LBB95:
 502              	.LBB96:
 503              	.LBB97:
 504              	.LBB98:
  18:src/../h/list.hpp ****         }
 505              		.loc 3 18 46 is_stmt 0
 506 029c 13050001 		li	a0,16
 507              	.LVL50:
 508 02a0 97000000 		call	_ZN15MemoryAllocator9mem_allocEm@plt
 508      E7800000 
 509              	.LVL51:
 510              	.LBE98:
 511              	.LBE97:
 512              	.LBB99:
 513              	.LBB100:
  15:src/../h/list.hpp **** 
 514              		.loc 3 15 58
 515 02a8 23302501 		sd	s2,0(a0)
 516 02ac 23340500 		sd	zero,8(a0)
 517              	.LVL52:
 518              	.LBE100:
 519              	.LBE99:
  36:src/../h/list.hpp **** 
  37:src/../h/list.hpp ****     List(const List<T> &) = delete;
  38:src/../h/list.hpp **** 
  39:src/../h/list.hpp ****     List<T> &operator=(const List<T> &) = delete;
  40:src/../h/list.hpp **** 
  41:src/../h/list.hpp ****     void addFirst(T *data)
  42:src/../h/list.hpp ****     {
  43:src/../h/list.hpp ****         Elem *elem = new Elem(data, head);
  44:src/../h/list.hpp ****         head = elem;
  45:src/../h/list.hpp ****         if (!tail) { tail = head; }
  46:src/../h/list.hpp ****     }
  47:src/../h/list.hpp **** 
  48:src/../h/list.hpp ****     void addLast(T *data)
  49:src/../h/list.hpp ****     {
  50:src/../h/list.hpp ****         Elem *elem = new Elem(data, 0);
  51:src/../h/list.hpp ****         if (tail)
 520              		.loc 3 51 13
 521 02b0 83B78403 		ld	a5,56(s1)
 522              		.loc 3 51 9
 523 02b4 63820702 		beqz	a5,.L26
  52:src/../h/list.hpp ****         {
GAS LISTING /tmp/ccHLVkUp.s 			page 18


  53:src/../h/list.hpp ****             tail->next = elem;
 524              		.loc 3 53 13
 525 02b8 23B4A700 		sd	a0,8(a5)
  54:src/../h/list.hpp ****             tail = elem;
 526              		.loc 3 54 13
 527 02bc 23BCA402 		sd	a0,56(s1)
 528              	.LVL53:
 529              	.L24:
 530              	.LBE96:
 531              	.LBE95:
  66:src/tcb.cpp   ****     }
  67:src/tcb.cpp   **** }
 532              		.loc 1 67 1
 533 02c0 83308101 		ld	ra,24(sp)
 534              		.cfi_remember_state
 535              		.cfi_restore 1
 536 02c4 03340101 		ld	s0,16(sp)
 537              		.cfi_restore 8
 538              		.cfi_def_cfa 2, 32
 539 02c8 83348100 		ld	s1,8(sp)
 540              		.cfi_restore 9
 541              	.LVL54:
 542 02cc 03390100 		ld	s2,0(sp)
 543              		.cfi_restore 18
 544 02d0 13010102 		addi	sp,sp,32
 545              		.cfi_def_cfa_offset 0
 546 02d4 67800000 		jr	ra
 547              	.LVL55:
 548              	.L26:
 549              		.cfi_restore_state
 550              	.LBB102:
 551              	.LBB101:
  55:src/../h/list.hpp ****         } else
  56:src/../h/list.hpp ****         {
  57:src/../h/list.hpp ****             head = tail = elem;
 552              		.loc 3 57 13
 553 02d8 23BCA402 		sd	a0,56(s1)
 554 02dc 23B8A402 		sd	a0,48(s1)
 555              	.LVL56:
 556              	.LBE101:
 557              	.LBE102:
 558              		.loc 1 67 1
 559 02e0 6FF01FFE 		j	.L24
 560              		.cfi_endproc
 561              	.LFE61:
 563              		.align	2
 564              		.globl	_ZN3TCB10releaseAllEv
 566              	_ZN3TCB10releaseAllEv:
 567              	.LFB62:
  68:src/tcb.cpp   **** 
  69:src/tcb.cpp   **** void TCB::releaseAll() {
 568              		.loc 1 69 24 is_stmt 1
 569              		.cfi_startproc
 570              	.LVL57:
 571 02e4 130101FE 		addi	sp,sp,-32
 572              		.cfi_def_cfa_offset 32
 573 02e8 233C1100 		sd	ra,24(sp)
GAS LISTING /tmp/ccHLVkUp.s 			page 19


 574 02ec 23388100 		sd	s0,16(sp)
 575 02f0 23349100 		sd	s1,8(sp)
 576 02f4 23302101 		sd	s2,0(sp)
 577              		.cfi_offset 1, -8
 578              		.cfi_offset 8, -16
 579              		.cfi_offset 9, -24
 580              		.cfi_offset 18, -32
 581 02f8 13040102 		addi	s0,sp,32
 582              		.cfi_def_cfa 8, 0
 583 02fc 13090500 		mv	s2,a0
 584 0300 6F004002 		j	.L35
 585              	.LVL58:
 586              	.L37:
 587              	.LBB103:
 588              	.LBB104:
 589              	.LBB105:
  58:src/../h/list.hpp ****         }
  59:src/../h/list.hpp ****     }
  60:src/../h/list.hpp **** 
  61:src/../h/list.hpp ****     T *removeFirst()
  62:src/../h/list.hpp ****     {
  63:src/../h/list.hpp ****         if (!head) { return 0; }
  64:src/../h/list.hpp **** 
  65:src/../h/list.hpp ****         Elem *elem = head;
  66:src/../h/list.hpp ****         head = head->next;
  67:src/../h/list.hpp ****         if (!head) { tail = 0; }
 590              		.loc 3 67 22 is_stmt 0
 591 0304 233C0902 		sd	zero,56(s2)
 592              	.L34:
  68:src/../h/list.hpp **** 
  69:src/../h/list.hpp ****         T *ret = elem->data;
 593              		.loc 3 69 12
 594 0308 83340500 		ld	s1,0(a0)
 595              	.LVL59:
 596              	.LBB106:
 597              	.LBB107:
  25:src/../h/list.hpp ****         }
 598              		.loc 3 25 38
 599 030c 97000000 		call	_ZN15MemoryAllocator8mem_freeEPv@plt
 599      E7800000 
 600              	.LVL60:
 601              	.LBE107:
 602              	.LBE106:
 603              	.LBE105:
 604              	.LBE104:
  70:src/tcb.cpp   ****     while (this->joined.peekFirst()) {
  71:src/tcb.cpp   ****         TCB* tcb = this->joined.removeFirst();
  72:src/tcb.cpp   ****         tcb->setBlocked(false);
 605              		.loc 1 72 9 is_stmt 1
 606              	.LBB109:
 607              	.LBB110:
  26:src/../h/tcb.hpp **** 
 608              		.loc 2 26 35
  26:src/../h/tcb.hpp **** 
 609              		.loc 2 26 49 is_stmt 0
 610 0314 A3800402 		sb	zero,33(s1)
 611              	.LVL61:
GAS LISTING /tmp/ccHLVkUp.s 			page 20


 612              	.LBE110:
 613              	.LBE109:
  73:src/tcb.cpp   ****         Scheduler::put(tcb);
 614              		.loc 1 73 9 is_stmt 1
 615              		.loc 1 73 23 is_stmt 0
 616 0318 13850400 		mv	a0,s1
 617 031c 97000000 		call	_ZN9Scheduler3putEP3TCB@plt
 617      E7800000 
 618              	.LVL62:
 619              	.L35:
 620              	.LBE103:
  70:src/tcb.cpp   ****     while (this->joined.peekFirst()) {
 621              		.loc 1 70 5 is_stmt 1
  70:src/tcb.cpp   ****     while (this->joined.peekFirst()) {
 622              		.loc 1 70 35
 623              	.LBB112:
 624              	.LBB113:
  70:src/../h/list.hpp ****         delete elem;
  71:src/../h/list.hpp ****         return ret;
  72:src/../h/list.hpp ****     }
  73:src/../h/list.hpp **** 
  74:src/../h/list.hpp ****     T *peekFirst()
  75:src/../h/list.hpp ****     {
  76:src/../h/list.hpp ****         if (!head) { return 0; }
 625              		.loc 3 76 14 is_stmt 0
 626 0324 03350903 		ld	a0,48(s2)
 627              		.loc 3 76 9
 628 0328 630E0500 		beqz	a0,.L32
  77:src/../h/list.hpp ****         return head->data;
 629              		.loc 3 77 22
 630 032c 83370500 		ld	a5,0(a0)
 631              	.LVL63:
 632              	.LBE113:
 633              	.LBE112:
  70:src/tcb.cpp   ****         TCB* tcb = this->joined.removeFirst();
 634              		.loc 1 70 35
 635 0330 638A0700 		beqz	a5,.L32
 636              	.LBB114:
  71:src/tcb.cpp   ****         tcb->setBlocked(false);
 637              		.loc 1 71 9 is_stmt 1
 638              	.LVL64:
 639              	.LBB111:
 640              	.LBB108:
  66:src/../h/list.hpp ****         if (!head) { tail = 0; }
 641              		.loc 3 66 22 is_stmt 0
 642 0334 83378500 		ld	a5,8(a0)
  66:src/../h/list.hpp ****         if (!head) { tail = 0; }
 643              		.loc 3 66 9
 644 0338 2338F902 		sd	a5,48(s2)
  67:src/../h/list.hpp **** 
 645              		.loc 3 67 9
 646 033c E39607FC 		bnez	a5,.L34
 647 0340 6FF05FFC 		j	.L37
 648              	.LVL65:
 649              	.L32:
 650              	.LBE108:
 651              	.LBE111:
GAS LISTING /tmp/ccHLVkUp.s 			page 21


 652              	.LBE114:
  74:src/tcb.cpp   ****     }
  75:src/tcb.cpp   **** }
 653              		.loc 1 75 1
 654 0344 83308101 		ld	ra,24(sp)
 655              		.cfi_restore 1
 656 0348 03340101 		ld	s0,16(sp)
 657              		.cfi_restore 8
 658              		.cfi_def_cfa 2, 32
 659 034c 83348100 		ld	s1,8(sp)
 660              		.cfi_restore 9
 661 0350 03390100 		ld	s2,0(sp)
 662              		.cfi_restore 18
 663              	.LVL66:
 664 0354 13010102 		addi	sp,sp,32
 665              		.cfi_def_cfa_offset 0
 666 0358 67800000 		jr	ra
 667              		.cfi_endproc
 668              	.LFE62:
 670              		.align	2
 671              		.globl	_ZN3TCB13threadWrapperEv
 673              	_ZN3TCB13threadWrapperEv:
 674              	.LFB60:
  54:src/tcb.cpp   ****     Riscv::popSppSpie();
 675              		.loc 1 54 1 is_stmt 1
 676              		.cfi_startproc
 677 035c 130101FE 		addi	sp,sp,-32
 678              		.cfi_def_cfa_offset 32
 679 0360 233C1100 		sd	ra,24(sp)
 680 0364 23388100 		sd	s0,16(sp)
 681 0368 23349100 		sd	s1,8(sp)
 682              		.cfi_offset 1, -8
 683              		.cfi_offset 8, -16
 684              		.cfi_offset 9, -24
 685 036c 13040102 		addi	s0,sp,32
 686              		.cfi_def_cfa 8, 0
  55:src/tcb.cpp   ****     running->body(running->arg);
 687              		.loc 1 55 5
  55:src/tcb.cpp   ****     running->body(running->arg);
 688              		.loc 1 55 22 is_stmt 0
 689 0370 97000000 		call	_ZN5Riscv10popSppSpieEv@plt
 689      E7800000 
 690              	.LVL67:
  56:src/tcb.cpp   ****     running->setFinished(true);
 691              		.loc 1 56 5 is_stmt 1
  56:src/tcb.cpp   ****     running->setFinished(true);
 692              		.loc 1 56 14 is_stmt 0
 693 0378 97040000 		lla	s1,.LANCHOR1
 693      93840400 
 694 0380 83B78400 		ld	a5,8(s1)
 695 0384 03B70700 		ld	a4,0(a5)
  56:src/tcb.cpp   ****     running->setFinished(true);
 696              		.loc 1 56 18
 697 0388 03B58702 		ld	a0,40(a5)
 698 038c E7000700 		jalr	a4
 699              	.LVL68:
  57:src/tcb.cpp   ****     running->releaseAll();
GAS LISTING /tmp/ccHLVkUp.s 			page 22


 700              		.loc 1 57 5 is_stmt 1
  57:src/tcb.cpp   ****     running->releaseAll();
 701              		.loc 1 57 25 is_stmt 0
 702 0390 03B58400 		ld	a0,8(s1)
 703              	.LVL69:
 704              	.LBB115:
 705              	.LBB116:
  22:src/../h/tcb.hpp **** 
 706              		.loc 2 22 36 is_stmt 1
  22:src/../h/tcb.hpp **** 
 707              		.loc 2 22 45 is_stmt 0
 708 0394 93071000 		li	a5,1
 709 0398 2300F502 		sb	a5,32(a0)
 710              	.LVL70:
 711              	.LBE116:
 712              	.LBE115:
  58:src/tcb.cpp   ****     thread_dispatch();
 713              		.loc 1 58 5 is_stmt 1
  58:src/tcb.cpp   ****     thread_dispatch();
 714              		.loc 1 58 24 is_stmt 0
 715 039c 97000000 		call	_ZN3TCB10releaseAllEv
 715      E7800000 
 716              	.LVL71:
  59:src/tcb.cpp   **** }
 717              		.loc 1 59 5 is_stmt 1
  59:src/tcb.cpp   **** }
 718              		.loc 1 59 20 is_stmt 0
 719 03a4 97000000 		call	_Z15thread_dispatchv@plt
 719      E7800000 
 720              	.LVL72:
  60:src/tcb.cpp   **** 
 721              		.loc 1 60 1
 722 03ac 83308101 		ld	ra,24(sp)
 723              		.cfi_restore 1
 724 03b0 03340101 		ld	s0,16(sp)
 725              		.cfi_restore 8
 726              		.cfi_def_cfa 2, 32
 727 03b4 83348100 		ld	s1,8(sp)
 728              		.cfi_restore 9
 729 03b8 13010102 		addi	sp,sp,32
 730              		.cfi_def_cfa_offset 0
 731 03bc 67800000 		jr	ra
 732              		.cfi_endproc
 733              	.LFE60:
 735              		.globl	_ZN3TCB7runningE
 736              		.globl	_ZN3TCB12thread_limitE
 737              		.globl	_ZN3TCB2idE
 738              		.data
 739              		.align	2
 740              		.set	.LANCHOR0,. + 0
 743              	_ZN3TCB12thread_limitE:
 744 0000 05000000 		.word	5
 745              		.bss
 746              		.align	3
 747              		.set	.LANCHOR1,. + 0
 750              	_ZN3TCB2idE:
 751 0000 00000000 		.zero	4
GAS LISTING /tmp/ccHLVkUp.s 			page 23


 752 0004 00000000 		.zero	4
 755              	_ZN3TCB7runningE:
 756 0008 00000000 		.zero	8
 756      00000000 
 757              		.text
 758              	.Letext0:
 759              		.file 5 "src/../h/../lib/hw.h"
 760              		.file 6 "src/../h/memoryAllocator.hpp"
 761              		.file 7 "src/../h/scheduler.hpp"
 762              		.file 8 "src/../test/../h/syscall_c.hpp"
GAS LISTING /tmp/ccHLVkUp.s 			page 24

